
./Pwnable/pizza/problem/pizza:     file format elf64-x86-64


Disassembly of section .text:

0000000000402530 <.text>:
  402530:	83 c8 ff             	or     $0xffffffff,%eax
  402533:	e9 bd 28 00 00       	jmp    404df5 <dlerror@plt+0x28d5>
  402538:	83 c8 ff             	or     $0xffffffff,%eax
  40253b:	e9 37 2a 00 00       	jmp    404f77 <dlerror@plt+0x2a57>
  402540:	41 83 cc ff          	or     $0xffffffff,%r12d
  402544:	e9 66 2c 00 00       	jmp    4051af <dlerror@plt+0x2c8f>
  402549:	41 83 cd ff          	or     $0xffffffff,%r13d
  40254d:	e9 14 2e 00 00       	jmp    405366 <dlerror@plt+0x2e46>
  402552:	41 83 cd ff          	or     $0xffffffff,%r13d
  402556:	e9 ef 2d 00 00       	jmp    40534a <dlerror@plt+0x2e2a>
  40255b:	83 c8 ff             	or     $0xffffffff,%eax
  40255e:	e9 21 33 00 00       	jmp    405884 <dlerror@plt+0x3364>
  402563:	66 2e 0f 1f 84 00 00 	cs nopw 0x0(%rax,%rax,1)
  40256a:	00 00 00 
  40256d:	0f 1f 00             	nopl   (%rax)
  402570:	e9 db 18 00 00       	jmp    403e50 <dlerror@plt+0x1930>
  402575:	31 ed                	xor    %ebp,%ebp
  402577:	49 89 d1             	mov    %rdx,%r9
  40257a:	5e                   	pop    %rsi
  40257b:	48 89 e2             	mov    %rsp,%rdx
  40257e:	48 83 e4 f0          	and    $0xfffffffffffffff0,%rsp
  402582:	50                   	push   %rax
  402583:	54                   	push   %rsp
  402584:	49 c7 c0 30 87 40 00 	mov    $0x408730,%r8
  40258b:	48 c7 c1 c0 86 40 00 	mov    $0x4086c0,%rcx
  402592:	48 c7 c7 70 25 40 00 	mov    $0x402570,%rdi
  402599:	e8 b2 fc ff ff       	call   402250 <__libc_start_main@plt>
  40259e:	f4                   	hlt    
  40259f:	90                   	nop
  4025a0:	b8 a0 e2 40 00       	mov    $0x40e2a0,%eax
  4025a5:	48 3d a0 e2 40 00    	cmp    $0x40e2a0,%rax
  4025ab:	74 13                	je     4025c0 <dlerror@plt+0xa0>
  4025ad:	b8 00 00 00 00       	mov    $0x0,%eax
  4025b2:	48 85 c0             	test   %rax,%rax
  4025b5:	74 09                	je     4025c0 <dlerror@plt+0xa0>
  4025b7:	bf a0 e2 40 00       	mov    $0x40e2a0,%edi
  4025bc:	ff e0                	jmp    *%rax
  4025be:	66 90                	xchg   %ax,%ax
  4025c0:	c3                   	ret    
  4025c1:	66 66 2e 0f 1f 84 00 	data16 cs nopw 0x0(%rax,%rax,1)
  4025c8:	00 00 00 00 
  4025cc:	0f 1f 40 00          	nopl   0x0(%rax)
  4025d0:	be a0 e2 40 00       	mov    $0x40e2a0,%esi
  4025d5:	48 81 ee a0 e2 40 00 	sub    $0x40e2a0,%rsi
  4025dc:	48 89 f0             	mov    %rsi,%rax
  4025df:	48 c1 ee 3f          	shr    $0x3f,%rsi
  4025e3:	48 c1 f8 03          	sar    $0x3,%rax
  4025e7:	48 01 c6             	add    %rax,%rsi
  4025ea:	48 d1 fe             	sar    %rsi
  4025ed:	74 11                	je     402600 <dlerror@plt+0xe0>
  4025ef:	b8 00 00 00 00       	mov    $0x0,%eax
  4025f4:	48 85 c0             	test   %rax,%rax
  4025f7:	74 07                	je     402600 <dlerror@plt+0xe0>
  4025f9:	bf a0 e2 40 00       	mov    $0x40e2a0,%edi
  4025fe:	ff e0                	jmp    *%rax
  402600:	c3                   	ret    
  402601:	66 66 2e 0f 1f 84 00 	data16 cs nopw 0x0(%rax,%rax,1)
  402608:	00 00 00 00 
  40260c:	0f 1f 40 00          	nopl   0x0(%rax)
  402610:	80 3d 99 bc 00 00 00 	cmpb   $0x0,0xbc99(%rip)        # 40e2b0 <stderr@GLIBC_2.2.5+0x8>
  402617:	75 17                	jne    402630 <dlerror@plt+0x110>
  402619:	55                   	push   %rbp
  40261a:	48 89 e5             	mov    %rsp,%rbp
  40261d:	e8 7e ff ff ff       	call   4025a0 <dlerror@plt+0x80>
  402622:	c6 05 87 bc 00 00 01 	movb   $0x1,0xbc87(%rip)        # 40e2b0 <stderr@GLIBC_2.2.5+0x8>
  402629:	5d                   	pop    %rbp
  40262a:	c3                   	ret    
  40262b:	0f 1f 44 00 00       	nopl   0x0(%rax,%rax,1)
  402630:	c3                   	ret    
  402631:	66 66 2e 0f 1f 84 00 	data16 cs nopw 0x0(%rax,%rax,1)
  402638:	00 00 00 00 
  40263c:	0f 1f 40 00          	nopl   0x0(%rax)
  402640:	eb 8e                	jmp    4025d0 <dlerror@plt+0xb0>
  402642:	66 2e 0f 1f 84 00 00 	cs nopw 0x0(%rax,%rax,1)
  402649:	00 00 00 
  40264c:	0f 1f 40 00          	nopl   0x0(%rax)
  402650:	41 57                	push   %r15
  402652:	41 56                	push   %r14
  402654:	41 55                	push   %r13
  402656:	41 54                	push   %r12
  402658:	55                   	push   %rbp
  402659:	53                   	push   %rbx
  40265a:	48 89 fb             	mov    %rdi,%rbx
  40265d:	48 81 ec a8 00 00 00 	sub    $0xa8,%rsp
  402664:	48 89 74 24 08       	mov    %rsi,0x8(%rsp)
  402669:	48 8d 7c 24 30       	lea    0x30(%rsp),%rdi
  40266e:	be 10 90 40 00       	mov    $0x409010,%esi
  402673:	48 89 54 24 10       	mov    %rdx,0x10(%rsp)
  402678:	ba 70 00 00 00       	mov    $0x70,%edx
  40267d:	48 89 4c 24 18       	mov    %rcx,0x18(%rsp)
  402682:	48 c7 44 24 70 00 00 	movq   $0x0,0x70(%rsp)
  402689:	00 00 
  40268b:	48 c7 44 24 78 00 00 	movq   $0x0,0x78(%rsp)
  402692:	00 00 
  402694:	48 c7 84 24 80 00 00 	movq   $0x0,0x80(%rsp)
  40269b:	00 00 00 00 00 
  4026a0:	c7 44 24 38 00 00 00 	movl   $0x0,0x38(%rsp)
  4026a7:	00 
  4026a8:	48 c7 44 24 30 00 00 	movq   $0x0,0x30(%rsp)
  4026af:	00 00 
  4026b1:	e8 6a fd ff ff       	call   402420 <inflateInit_@plt>
  4026b6:	41 89 c4             	mov    %eax,%r12d
  4026b9:	85 c0                	test   %eax,%eax
  4026bb:	0f 85 60 02 00 00    	jne    402921 <dlerror@plt+0x401>
  4026c1:	bf 00 20 00 00       	mov    $0x2000,%edi
  4026c6:	e8 b5 fc ff ff       	call   402380 <malloc@plt>
  4026cb:	48 89 c5             	mov    %rax,%rbp
  4026ce:	48 85 c0             	test   %rax,%rax
  4026d1:	0f 84 a1 02 00 00    	je     402978 <dlerror@plt+0x458>
  4026d7:	bf 00 20 00 00       	mov    $0x2000,%edi
  4026dc:	e8 9f fc ff ff       	call   402380 <malloc@plt>
  4026e1:	49 89 c5             	mov    %rax,%r13
  4026e4:	48 85 c0             	test   %rax,%rax
  4026e7:	0f 84 6c 02 00 00    	je     402959 <dlerror@plt+0x439>
  4026ed:	48 8b 44 24 08       	mov    0x8(%rsp),%rax
  4026f2:	44 8b 78 08          	mov    0x8(%rax),%r15d
  4026f6:	49 89 d8             	mov    %rbx,%r8
  4026f9:	ba 01 00 00 00       	mov    $0x1,%edx
  4026fe:	be 00 20 00 00       	mov    $0x2000,%esi
  402703:	48 89 ef             	mov    %rbp,%rdi
  402706:	49 81 ff 00 20 00 00 	cmp    $0x2000,%r15
  40270d:	41 be 00 20 00 00    	mov    $0x2000,%r14d
  402713:	4d 0f 46 f7          	cmovbe %r15,%r14
  402717:	4c 89 f1             	mov    %r14,%rcx
  40271a:	e8 11 fd ff ff       	call   402430 <__fread_chk@plt>
  40271f:	49 39 c6             	cmp    %rax,%r14
  402722:	0f 85 e0 01 00 00    	jne    402908 <dlerror@plt+0x3e8>
  402728:	48 89 df             	mov    %rbx,%rdi
  40272b:	e8 e0 f9 ff ff       	call   402110 <ferror@plt>
  402730:	85 c0                	test   %eax,%eax
  402732:	0f 85 d0 01 00 00    	jne    402908 <dlerror@plt+0x3e8>
  402738:	44 89 74 24 38       	mov    %r14d,0x38(%rsp)
  40273d:	48 89 6c 24 30       	mov    %rbp,0x30(%rsp)
  402742:	89 44 24 24          	mov    %eax,0x24(%rsp)
  402746:	48 89 d8             	mov    %rbx,%rax
  402749:	4c 89 eb             	mov    %r13,%rbx
  40274c:	49 89 c5             	mov    %rax,%r13
  40274f:	31 f6                	xor    %esi,%esi
  402751:	48 8d 7c 24 30       	lea    0x30(%rsp),%rdi
  402756:	48 89 5c 24 48       	mov    %rbx,0x48(%rsp)
  40275b:	c7 44 24 50 00 20 00 	movl   $0x2000,0x50(%rsp)
  402762:	00 
  402763:	e8 88 f9 ff ff       	call   4020f0 <inflate@plt>
  402768:	41 89 c4             	mov    %eax,%r12d
  40276b:	83 f8 ff             	cmp    $0xffffffff,%eax
  40276e:	0f 8d 94 00 00 00    	jge    402808 <dlerror@plt+0x2e8>
  402774:	83 f8 fc             	cmp    $0xfffffffc,%eax
  402777:	0f 8d f3 00 00 00    	jge    402870 <dlerror@plt+0x350>
  40277d:	8b 4c 24 50          	mov    0x50(%rsp),%ecx
  402781:	ba 00 20 00 00       	mov    $0x2000,%edx
  402786:	48 89 c8             	mov    %rcx,%rax
  402789:	48 29 ca             	sub    %rcx,%rdx
  40278c:	48 8b 4c 24 10       	mov    0x10(%rsp),%rcx
  402791:	48 85 c9             	test   %rcx,%rcx
  402794:	0f 84 e6 00 00 00    	je     402880 <dlerror@plt+0x360>
  40279a:	be 01 00 00 00       	mov    $0x1,%esi
  40279f:	48 89 df             	mov    %rbx,%rdi
  4027a2:	48 89 54 24 28       	mov    %rdx,0x28(%rsp)
  4027a7:	e8 24 fd ff ff       	call   4024d0 <fwrite@plt>
  4027ac:	48 8b 54 24 28       	mov    0x28(%rsp),%rdx
  4027b1:	48 39 d0             	cmp    %rdx,%rax
  4027b4:	0f 85 59 01 00 00    	jne    402913 <dlerror@plt+0x3f3>
  4027ba:	48 8b 7c 24 10       	mov    0x10(%rsp),%rdi
  4027bf:	e8 4c f9 ff ff       	call   402110 <ferror@plt>
  4027c4:	85 c0                	test   %eax,%eax
  4027c6:	0f 85 47 01 00 00    	jne    402913 <dlerror@plt+0x3f3>
  4027cc:	8b 44 24 50          	mov    0x50(%rsp),%eax
  4027d0:	85 c0                	test   %eax,%eax
  4027d2:	0f 84 77 ff ff ff    	je     40274f <dlerror@plt+0x22f>
  4027d8:	4c 89 e8             	mov    %r13,%rax
  4027db:	45 89 e0             	mov    %r12d,%r8d
  4027de:	49 89 dd             	mov    %rbx,%r13
  4027e1:	44 8b 64 24 24       	mov    0x24(%rsp),%r12d
  4027e6:	48 89 c3             	mov    %rax,%rbx
  4027e9:	4d 29 f7             	sub    %r14,%r15
  4027ec:	41 83 f8 01          	cmp    $0x1,%r8d
  4027f0:	74 46                	je     402838 <dlerror@plt+0x318>
  4027f2:	4d 85 ff             	test   %r15,%r15
  4027f5:	0f 85 fb fe ff ff    	jne    4026f6 <dlerror@plt+0x1d6>
  4027fb:	41 83 f8 01          	cmp    $0x1,%r8d
  4027ff:	74 37                	je     402838 <dlerror@plt+0x318>
  402801:	eb 17                	jmp    40281a <dlerror@plt+0x2fa>
  402803:	0f 1f 44 00 00       	nopl   0x0(%rax,%rax,1)
  402808:	83 f8 02             	cmp    $0x2,%eax
  40280b:	0f 85 6c ff ff ff    	jne    40277d <dlerror@plt+0x25d>
  402811:	49 89 dd             	mov    %rbx,%r13
  402814:	41 b8 fd ff ff ff    	mov    $0xfffffffd,%r8d
  40281a:	48 8b 74 24 08       	mov    0x8(%rsp),%rsi
  40281f:	44 89 c2             	mov    %r8d,%edx
  402822:	bf 88 91 40 00       	mov    $0x409188,%edi
  402827:	31 c0                	xor    %eax,%eax
  402829:	41 bc ff ff ff ff    	mov    $0xffffffff,%r12d
  40282f:	48 83 c6 12          	add    $0x12,%rsi
  402833:	e8 18 0c 00 00       	call   403450 <dlerror@plt+0xf30>
  402838:	48 8d 7c 24 30       	lea    0x30(%rsp),%rdi
  40283d:	e8 ce fa ff ff       	call   402310 <inflateEnd@plt>
  402842:	48 89 ef             	mov    %rbp,%rdi
  402845:	e8 26 f8 ff ff       	call   402070 <free@plt>
  40284a:	4c 89 ef             	mov    %r13,%rdi
  40284d:	e8 1e f8 ff ff       	call   402070 <free@plt>
  402852:	48 81 c4 a8 00 00 00 	add    $0xa8,%rsp
  402859:	44 89 e0             	mov    %r12d,%eax
  40285c:	5b                   	pop    %rbx
  40285d:	5d                   	pop    %rbp
  40285e:	41 5c                	pop    %r12
  402860:	41 5d                	pop    %r13
  402862:	41 5e                	pop    %r14
  402864:	41 5f                	pop    %r15
  402866:	c3                   	ret    
  402867:	66 0f 1f 84 00 00 00 	nopw   0x0(%rax,%rax,1)
  40286e:	00 00 
  402870:	49 89 dd             	mov    %rbx,%r13
  402873:	41 89 c0             	mov    %eax,%r8d
  402876:	eb a2                	jmp    40281a <dlerror@plt+0x2fa>
  402878:	0f 1f 84 00 00 00 00 	nopl   0x0(%rax,%rax,1)
  40287f:	00 
  402880:	48 83 7c 24 18 00    	cmpq   $0x0,0x18(%rsp)
  402886:	0f 84 44 ff ff ff    	je     4027d0 <dlerror@plt+0x2b0>
  40288c:	48 83 fa 08          	cmp    $0x8,%rdx
  402890:	73 3e                	jae    4028d0 <dlerror@plt+0x3b0>
  402892:	f6 c2 04             	test   $0x4,%dl
  402895:	0f 85 a8 00 00 00    	jne    402943 <dlerror@plt+0x423>
  40289b:	48 85 d2             	test   %rdx,%rdx
  40289e:	74 20                	je     4028c0 <dlerror@plt+0x3a0>
  4028a0:	0f b6 0b             	movzbl (%rbx),%ecx
  4028a3:	48 8b 74 24 18       	mov    0x18(%rsp),%rsi
  4028a8:	88 0e                	mov    %cl,(%rsi)
  4028aa:	f6 c2 02             	test   $0x2,%dl
  4028ad:	74 11                	je     4028c0 <dlerror@plt+0x3a0>
  4028af:	0f b7 4c 13 fe       	movzwl -0x2(%rbx,%rdx,1),%ecx
  4028b4:	48 8b 74 24 18       	mov    0x18(%rsp),%rsi
  4028b9:	66 89 4c 16 fe       	mov    %cx,-0x2(%rsi,%rdx,1)
  4028be:	66 90                	xchg   %ax,%ax
  4028c0:	48 01 54 24 18       	add    %rdx,0x18(%rsp)
  4028c5:	e9 06 ff ff ff       	jmp    4027d0 <dlerror@plt+0x2b0>
  4028ca:	66 0f 1f 44 00 00    	nopw   0x0(%rax,%rax,1)
  4028d0:	48 8b 74 24 18       	mov    0x18(%rsp),%rsi
  4028d5:	48 8b 0b             	mov    (%rbx),%rcx
  4028d8:	48 89 0e             	mov    %rcx,(%rsi)
  4028db:	48 8b 4c 13 f8       	mov    -0x8(%rbx,%rdx,1),%rcx
  4028e0:	48 8d 7e 08          	lea    0x8(%rsi),%rdi
  4028e4:	48 83 e7 f8          	and    $0xfffffffffffffff8,%rdi
  4028e8:	48 89 4c 16 f8       	mov    %rcx,-0x8(%rsi,%rdx,1)
  4028ed:	48 89 f1             	mov    %rsi,%rcx
  4028f0:	48 89 de             	mov    %rbx,%rsi
  4028f3:	48 29 f9             	sub    %rdi,%rcx
  4028f6:	48 29 ce             	sub    %rcx,%rsi
  4028f9:	48 01 d1             	add    %rdx,%rcx
  4028fc:	48 c1 e9 03          	shr    $0x3,%rcx
  402900:	f3 48 a5             	rep movsq %ds:(%rsi),%es:(%rdi)
  402903:	eb bb                	jmp    4028c0 <dlerror@plt+0x3a0>
  402905:	0f 1f 00             	nopl   (%rax)
  402908:	41 bc ff ff ff ff    	mov    $0xffffffff,%r12d
  40290e:	e9 25 ff ff ff       	jmp    402838 <dlerror@plt+0x318>
  402913:	49 89 dd             	mov    %rbx,%r13
  402916:	41 b8 ff ff ff ff    	mov    $0xffffffff,%r8d
  40291c:	e9 f9 fe ff ff       	jmp    40281a <dlerror@plt+0x2fa>
  402921:	48 8b 74 24 08       	mov    0x8(%rsp),%rsi
  402926:	89 c2                	mov    %eax,%edx
  402928:	31 c0                	xor    %eax,%eax
  40292a:	bf b0 90 40 00       	mov    $0x4090b0,%edi
  40292f:	41 bc ff ff ff ff    	mov    $0xffffffff,%r12d
  402935:	48 83 c6 12          	add    $0x12,%rsi
  402939:	e8 12 0b 00 00       	call   403450 <dlerror@plt+0xf30>
  40293e:	e9 0f ff ff ff       	jmp    402852 <dlerror@plt+0x332>
  402943:	8b 0b                	mov    (%rbx),%ecx
  402945:	48 8b 74 24 18       	mov    0x18(%rsp),%rsi
  40294a:	89 0e                	mov    %ecx,(%rsi)
  40294c:	8b 4c 13 fc          	mov    -0x4(%rbx,%rdx,1),%ecx
  402950:	89 4c 16 fc          	mov    %ecx,-0x4(%rsi,%rdx,1)
  402954:	e9 67 ff ff ff       	jmp    4028c0 <dlerror@plt+0x3a0>
  402959:	48 8b 54 24 08       	mov    0x8(%rsp),%rdx
  40295e:	be 40 91 40 00       	mov    $0x409140,%esi
  402963:	bf 16 90 40 00       	mov    $0x409016,%edi
  402968:	31 c0                	xor    %eax,%eax
  40296a:	48 83 c2 12          	add    $0x12,%rdx
  40296e:	e8 ad 0b 00 00       	call   403520 <dlerror@plt+0x1000>
  402973:	e9 c0 fe ff ff       	jmp    402838 <dlerror@plt+0x318>
  402978:	48 8b 54 24 08       	mov    0x8(%rsp),%rdx
  40297d:	be f8 90 40 00       	mov    $0x4090f8,%esi
  402982:	31 c0                	xor    %eax,%eax
  402984:	45 31 ed             	xor    %r13d,%r13d
  402987:	bf 16 90 40 00       	mov    $0x409016,%edi
  40298c:	48 83 c2 12          	add    $0x12,%rdx
  402990:	e8 8b 0b 00 00       	call   403520 <dlerror@plt+0x1000>
  402995:	e9 9e fe ff ff       	jmp    402838 <dlerror@plt+0x318>
  40299a:	66 0f 1f 44 00 00    	nopw   0x0(%rax,%rax,1)
  4029a0:	48 63 06             	movslq (%rsi),%rax
  4029a3:	48 01 f0             	add    %rsi,%rax
  4029a6:	c3                   	ret    
  4029a7:	66 0f 1f 84 00 00 00 	nopw   0x0(%rax,%rax,1)
  4029ae:	00 00 
  4029b0:	41 57                	push   %r15
  4029b2:	41 56                	push   %r14
  4029b4:	41 55                	push   %r13
  4029b6:	49 89 f5             	mov    %rsi,%r13
  4029b9:	be 1d 90 40 00       	mov    $0x40901d,%esi
  4029be:	41 54                	push   %r12
  4029c0:	55                   	push   %rbp
  4029c1:	53                   	push   %rbx
  4029c2:	48 89 fb             	mov    %rdi,%rbx
  4029c5:	48 83 c7 70          	add    $0x70,%rdi
  4029c9:	48 83 ec 08          	sub    $0x8,%rsp
  4029cd:	e8 8e fa ff ff       	call   402460 <fopen@plt>
  4029d2:	48 85 c0             	test   %rax,%rax
  4029d5:	0f 84 f5 00 00 00    	je     402ad0 <dlerror@plt+0x5b0>
  4029db:	41 8b 75 04          	mov    0x4(%r13),%esi
  4029df:	31 d2                	xor    %edx,%edx
  4029e1:	48 03 33             	add    (%rbx),%rsi
  4029e4:	48 89 c7             	mov    %rax,%rdi
  4029e7:	49 89 c7             	mov    %rax,%r15
  4029ea:	e8 61 fa ff ff       	call   402450 <fseeko@plt>
  4029ef:	85 c0                	test   %eax,%eax
  4029f1:	0f 88 b9 00 00 00    	js     402ab0 <dlerror@plt+0x590>
  4029f7:	41 8b 5d 0c          	mov    0xc(%r13),%ebx
  4029fb:	48 89 df             	mov    %rbx,%rdi
  4029fe:	e8 7d f9 ff ff       	call   402380 <malloc@plt>
  402a03:	49 89 c6             	mov    %rax,%r14
  402a06:	48 85 c0             	test   %rax,%rax
  402a09:	0f 84 d6 00 00 00    	je     402ae5 <dlerror@plt+0x5c5>
  402a0f:	41 80 7d 10 01       	cmpb   $0x1,0x10(%r13)
  402a14:	74 7a                	je     402a90 <dlerror@plt+0x570>
  402a16:	49 89 c4             	mov    %rax,%r12
  402a19:	48 85 db             	test   %rbx,%rbx
  402a1c:	75 0a                	jne    402a28 <dlerror@plt+0x508>
  402a1e:	eb 4e                	jmp    402a6e <dlerror@plt+0x54e>
  402a20:	49 01 ec             	add    %rbp,%r12
  402a23:	48 29 eb             	sub    %rbp,%rbx
  402a26:	74 46                	je     402a6e <dlerror@plt+0x54e>
  402a28:	bd 00 20 00 00       	mov    $0x2000,%ebp
  402a2d:	4c 89 f9             	mov    %r15,%rcx
  402a30:	ba 01 00 00 00       	mov    $0x1,%edx
  402a35:	4c 89 e7             	mov    %r12,%rdi
  402a38:	48 81 fb 00 20 00 00 	cmp    $0x2000,%rbx
  402a3f:	48 0f 46 eb          	cmovbe %rbx,%rbp
  402a43:	48 89 ee             	mov    %rbp,%rsi
  402a46:	e8 d5 f6 ff ff       	call   402120 <fread@plt>
  402a4b:	48 85 c0             	test   %rax,%rax
  402a4e:	75 d0                	jne    402a20 <dlerror@plt+0x500>
  402a50:	49 8d 55 12          	lea    0x12(%r13),%rdx
  402a54:	be 90 92 40 00       	mov    $0x409290,%esi
  402a59:	bf 26 90 40 00       	mov    $0x409026,%edi
  402a5e:	e8 bd 0a 00 00       	call   403520 <dlerror@plt+0x1000>
  402a63:	4c 89 f7             	mov    %r14,%rdi
  402a66:	45 31 f6             	xor    %r14d,%r14d
  402a69:	e8 02 f6 ff ff       	call   402070 <free@plt>
  402a6e:	4c 89 ff             	mov    %r15,%rdi
  402a71:	e8 fa f6 ff ff       	call   402170 <fclose@plt>
  402a76:	48 83 c4 08          	add    $0x8,%rsp
  402a7a:	4c 89 f0             	mov    %r14,%rax
  402a7d:	5b                   	pop    %rbx
  402a7e:	5d                   	pop    %rbp
  402a7f:	41 5c                	pop    %r12
  402a81:	41 5d                	pop    %r13
  402a83:	41 5e                	pop    %r14
  402a85:	41 5f                	pop    %r15
  402a87:	c3                   	ret    
  402a88:	0f 1f 84 00 00 00 00 	nopl   0x0(%rax,%rax,1)
  402a8f:	00 
  402a90:	31 d2                	xor    %edx,%edx
  402a92:	48 89 c1             	mov    %rax,%rcx
  402a95:	4c 89 ee             	mov    %r13,%rsi
  402a98:	4c 89 ff             	mov    %r15,%rdi
  402a9b:	e8 b0 fb ff ff       	call   402650 <dlerror@plt+0x130>
  402aa0:	85 c0                	test   %eax,%eax
  402aa2:	74 ca                	je     402a6e <dlerror@plt+0x54e>
  402aa4:	eb bd                	jmp    402a63 <dlerror@plt+0x543>
  402aa6:	66 2e 0f 1f 84 00 00 	cs nopw 0x0(%rax,%rax,1)
  402aad:	00 00 00 
  402ab0:	49 8d 55 12          	lea    0x12(%r13),%rdx
  402ab4:	be 08 92 40 00       	mov    $0x409208,%esi
  402ab9:	bf 20 90 40 00       	mov    $0x409020,%edi
  402abe:	31 c0                	xor    %eax,%eax
  402ac0:	e8 5b 0a 00 00       	call   403520 <dlerror@plt+0x1000>
  402ac5:	45 31 f6             	xor    %r14d,%r14d
  402ac8:	eb a4                	jmp    402a6e <dlerror@plt+0x54e>
  402aca:	66 0f 1f 44 00 00    	nopw   0x0(%rax,%rax,1)
  402ad0:	49 8d 75 12          	lea    0x12(%r13),%rsi
  402ad4:	bf d0 91 40 00       	mov    $0x4091d0,%edi
  402ad9:	31 c0                	xor    %eax,%eax
  402adb:	45 31 f6             	xor    %r14d,%r14d
  402ade:	e8 6d 09 00 00       	call   403450 <dlerror@plt+0xf30>
  402ae3:	eb 91                	jmp    402a76 <dlerror@plt+0x556>
  402ae5:	49 8d 55 12          	lea    0x12(%r13),%rdx
  402ae9:	89 d9                	mov    %ebx,%ecx
  402aeb:	be 48 92 40 00       	mov    $0x409248,%esi
  402af0:	bf 16 90 40 00       	mov    $0x409016,%edi
  402af5:	31 c0                	xor    %eax,%eax
  402af7:	e8 24 0a 00 00       	call   403520 <dlerror@plt+0x1000>
  402afc:	e9 6d ff ff ff       	jmp    402a6e <dlerror@plt+0x54e>
  402b01:	66 66 2e 0f 1f 84 00 	data16 cs nopw 0x0(%rax,%rax,1)
  402b08:	00 00 00 00 
  402b0c:	0f 1f 40 00          	nopl   0x0(%rax)
  402b10:	41 55                	push   %r13
  402b12:	41 54                	push   %r12
  402b14:	55                   	push   %rbp
  402b15:	48 89 f5             	mov    %rsi,%rbp
  402b18:	53                   	push   %rbx
  402b19:	48 89 fb             	mov    %rdi,%rbx
  402b1c:	48 81 ec 08 10 00 00 	sub    $0x1008,%rsp
  402b23:	e8 88 fe ff ff       	call   4029b0 <dlerror@plt+0x490>
  402b28:	49 89 c4             	mov    %rax,%r12
  402b2b:	48 85 c0             	test   %rax,%rax
  402b2e:	74 78                	je     402ba8 <dlerror@plt+0x688>
  402b30:	48 83 c5 12          	add    $0x12,%rbp
  402b34:	48 81 c3 70 30 00 00 	add    $0x3070,%rbx
  402b3b:	48 89 ee             	mov    %rbp,%rsi
  402b3e:	48 89 df             	mov    %rbx,%rdi
  402b41:	e8 4a 51 00 00       	call   407c90 <dlerror@plt+0x5770>
  402b46:	85 c0                	test   %eax,%eax
  402b48:	78 5e                	js     402ba8 <dlerror@plt+0x688>
  402b4a:	55                   	push   %rbp
  402b4b:	b9 00 10 00 00       	mov    $0x1000,%ecx
  402b50:	ba 01 00 00 00       	mov    $0x1,%edx
  402b55:	49 89 d9             	mov    %rbx,%r9
  402b58:	6a 2f                	push   $0x2f
  402b5a:	41 b8 9e 95 40 00    	mov    $0x40959e,%r8d
  402b60:	be 00 10 00 00       	mov    $0x1000,%esi
  402b65:	31 c0                	xor    %eax,%eax
  402b67:	48 8d 7c 24 10       	lea    0x10(%rsp),%rdi
  402b6c:	e8 df f4 ff ff       	call   402050 <__snprintf_chk@plt>
  402b71:	5a                   	pop    %rdx
  402b72:	59                   	pop    %rcx
  402b73:	3d ff 0f 00 00       	cmp    $0xfff,%eax
  402b78:	7f 2e                	jg     402ba8 <dlerror@plt+0x688>
  402b7a:	48 89 e6             	mov    %rsp,%rsi
  402b7d:	4c 89 e7             	mov    %r12,%rdi
  402b80:	e8 db 1c 00 00       	call   404860 <dlerror@plt+0x2340>
  402b85:	41 89 c5             	mov    %eax,%r13d
  402b88:	4c 89 e7             	mov    %r12,%rdi
  402b8b:	e8 e0 f4 ff ff       	call   402070 <free@plt>
  402b90:	48 81 c4 08 10 00 00 	add    $0x1008,%rsp
  402b97:	44 89 e8             	mov    %r13d,%eax
  402b9a:	5b                   	pop    %rbx
  402b9b:	5d                   	pop    %rbp
  402b9c:	41 5c                	pop    %r12
  402b9e:	41 5d                	pop    %r13
  402ba0:	c3                   	ret    
  402ba1:	0f 1f 80 00 00 00 00 	nopl   0x0(%rax)
  402ba8:	41 bd ff ff ff ff    	mov    $0xffffffff,%r13d
  402bae:	eb d8                	jmp    402b88 <dlerror@plt+0x668>
  402bb0:	41 57                	push   %r15
  402bb2:	41 56                	push   %r14
  402bb4:	41 55                	push   %r13
  402bb6:	41 54                	push   %r12
  402bb8:	55                   	push   %rbp
  402bb9:	53                   	push   %rbx
  402bba:	48 83 ec 18          	sub    $0x18,%rsp
  402bbe:	83 bf 74 50 00 00 01 	cmpl   $0x1,0x5074(%rdi)
  402bc5:	0f 85 16 02 00 00    	jne    402de1 <dlerror@plt+0x8c1>
  402bcb:	80 7e 11 6e          	cmpb   $0x6e,0x11(%rsi)
  402bcf:	49 89 fe             	mov    %rdi,%r14
  402bd2:	49 89 f5             	mov    %rsi,%r13
  402bd5:	0f 84 25 01 00 00    	je     402d00 <dlerror@plt+0x7e0>
  402bdb:	48 8d 46 12          	lea    0x12(%rsi),%rax
  402bdf:	48 8d bf 70 30 00 00 	lea    0x3070(%rdi),%rdi
  402be6:	48 89 c6             	mov    %rax,%rsi
  402be9:	48 89 44 24 08       	mov    %rax,0x8(%rsp)
  402bee:	e8 bd 51 00 00       	call   407db0 <dlerror@plt+0x5890>
  402bf3:	48 89 c5             	mov    %rax,%rbp
  402bf6:	48 85 c0             	test   %rax,%rax
  402bf9:	0f 84 f9 01 00 00    	je     402df8 <dlerror@plt+0x8d8>
  402bff:	49 8d 7e 70          	lea    0x70(%r14),%rdi
  402c03:	be 1d 90 40 00       	mov    $0x40901d,%esi
  402c08:	e8 53 f8 ff ff       	call   402460 <fopen@plt>
  402c0d:	49 89 c4             	mov    %rax,%r12
  402c10:	48 85 c0             	test   %rax,%rax
  402c13:	0f 84 5f 01 00 00    	je     402d78 <dlerror@plt+0x858>
  402c19:	41 8b 75 04          	mov    0x4(%r13),%esi
  402c1d:	31 d2                	xor    %edx,%edx
  402c1f:	49 03 36             	add    (%r14),%rsi
  402c22:	48 89 c7             	mov    %rax,%rdi
  402c25:	e8 26 f8 ff ff       	call   402450 <fseeko@plt>
  402c2a:	85 c0                	test   %eax,%eax
  402c2c:	0f 88 8e 01 00 00    	js     402dc0 <dlerror@plt+0x8a0>
  402c32:	41 80 7d 10 01       	cmpb   $0x1,0x10(%r13)
  402c37:	0f 84 e3 00 00 00    	je     402d20 <dlerror@plt+0x800>
  402c3d:	bf 00 20 00 00       	mov    $0x2000,%edi
  402c42:	e8 39 f7 ff ff       	call   402380 <malloc@plt>
  402c47:	49 89 c7             	mov    %rax,%r15
  402c4a:	48 85 c0             	test   %rax,%rax
  402c4d:	0f 84 c6 01 00 00    	je     402e19 <dlerror@plt+0x8f9>
  402c53:	41 8b 5d 0c          	mov    0xc(%r13),%ebx
  402c57:	48 85 db             	test   %rbx,%rbx
  402c5a:	75 31                	jne    402c8d <dlerror@plt+0x76d>
  402c5c:	e9 37 01 00 00       	jmp    402d98 <dlerror@plt+0x878>
  402c61:	0f 1f 80 00 00 00 00 	nopl   0x0(%rax)
  402c68:	48 89 e9             	mov    %rbp,%rcx
  402c6b:	ba 01 00 00 00       	mov    $0x1,%edx
  402c70:	4c 89 f6             	mov    %r14,%rsi
  402c73:	4c 89 ff             	mov    %r15,%rdi
  402c76:	e8 55 f8 ff ff       	call   4024d0 <fwrite@plt>
  402c7b:	48 85 c0             	test   %rax,%rax
  402c7e:	0f 84 1c 01 00 00    	je     402da0 <dlerror@plt+0x880>
  402c84:	4c 29 f3             	sub    %r14,%rbx
  402c87:	0f 84 0b 01 00 00    	je     402d98 <dlerror@plt+0x878>
  402c8d:	4d 89 e0             	mov    %r12,%r8
  402c90:	b9 01 00 00 00       	mov    $0x1,%ecx
  402c95:	be 00 20 00 00       	mov    $0x2000,%esi
  402c9a:	4c 89 ff             	mov    %r15,%rdi
  402c9d:	48 81 fb 00 20 00 00 	cmp    $0x2000,%rbx
  402ca4:	41 be 00 20 00 00    	mov    $0x2000,%r14d
  402caa:	4c 0f 46 f3          	cmovbe %rbx,%r14
  402cae:	4c 89 f2             	mov    %r14,%rdx
  402cb1:	e8 7a f7 ff ff       	call   402430 <__fread_chk@plt>
  402cb6:	48 85 c0             	test   %rax,%rax
  402cb9:	75 ad                	jne    402c68 <dlerror@plt+0x748>
  402cbb:	48 8b 54 24 08       	mov    0x8(%rsp),%rdx
  402cc0:	be 90 92 40 00       	mov    $0x409290,%esi
  402cc5:	bf 26 90 40 00       	mov    $0x409026,%edi
  402cca:	41 be ff ff ff ff    	mov    $0xffffffff,%r14d
  402cd0:	e8 4b 08 00 00       	call   403520 <dlerror@plt+0x1000>
  402cd5:	4c 89 ff             	mov    %r15,%rdi
  402cd8:	e8 93 f3 ff ff       	call   402070 <free@plt>
  402cdd:	41 80 7d 11 62       	cmpb   $0x62,0x11(%r13)
  402ce2:	48 89 ef             	mov    %rbp,%rdi
  402ce5:	75 56                	jne    402d3d <dlerror@plt+0x81d>
  402ce7:	e8 54 f6 ff ff       	call   402340 <fileno@plt>
  402cec:	be c0 01 00 00       	mov    $0x1c0,%esi
  402cf1:	89 c7                	mov    %eax,%edi
  402cf3:	e8 18 f7 ff ff       	call   402410 <fchmod@plt>
  402cf8:	eb 54                	jmp    402d4e <dlerror@plt+0x82e>
  402cfa:	66 0f 1f 44 00 00    	nopw   0x0(%rax,%rax,1)
  402d00:	e8 0b fe ff ff       	call   402b10 <dlerror@plt+0x5f0>
  402d05:	41 89 c6             	mov    %eax,%r14d
  402d08:	85 c0                	test   %eax,%eax
  402d0a:	78 54                	js     402d60 <dlerror@plt+0x840>
  402d0c:	48 83 c4 18          	add    $0x18,%rsp
  402d10:	44 89 f0             	mov    %r14d,%eax
  402d13:	5b                   	pop    %rbx
  402d14:	5d                   	pop    %rbp
  402d15:	41 5c                	pop    %r12
  402d17:	41 5d                	pop    %r13
  402d19:	41 5e                	pop    %r14
  402d1b:	41 5f                	pop    %r15
  402d1d:	c3                   	ret    
  402d1e:	66 90                	xchg   %ax,%ax
  402d20:	31 c9                	xor    %ecx,%ecx
  402d22:	48 89 ea             	mov    %rbp,%rdx
  402d25:	4c 89 ee             	mov    %r13,%rsi
  402d28:	4c 89 e7             	mov    %r12,%rdi
  402d2b:	e8 20 f9 ff ff       	call   402650 <dlerror@plt+0x130>
  402d30:	41 89 c6             	mov    %eax,%r14d
  402d33:	41 80 7d 11 62       	cmpb   $0x62,0x11(%r13)
  402d38:	48 89 ef             	mov    %rbp,%rdi
  402d3b:	74 aa                	je     402ce7 <dlerror@plt+0x7c7>
  402d3d:	e8 fe f5 ff ff       	call   402340 <fileno@plt>
  402d42:	be 80 01 00 00       	mov    $0x180,%esi
  402d47:	89 c7                	mov    %eax,%edi
  402d49:	e8 c2 f6 ff ff       	call   402410 <fchmod@plt>
  402d4e:	4c 89 e7             	mov    %r12,%rdi
  402d51:	e8 1a f4 ff ff       	call   402170 <fclose@plt>
  402d56:	48 89 ef             	mov    %rbp,%rdi
  402d59:	e8 12 f4 ff ff       	call   402170 <fclose@plt>
  402d5e:	eb ac                	jmp    402d0c <dlerror@plt+0x7ec>
  402d60:	49 8d 75 12          	lea    0x12(%r13),%rsi
  402d64:	bf 18 93 40 00       	mov    $0x409318,%edi
  402d69:	31 c0                	xor    %eax,%eax
  402d6b:	e8 e0 06 00 00       	call   403450 <dlerror@plt+0xf30>
  402d70:	eb 9a                	jmp    402d0c <dlerror@plt+0x7ec>
  402d72:	66 0f 1f 44 00 00    	nopw   0x0(%rax,%rax,1)
  402d78:	48 8b 74 24 08       	mov    0x8(%rsp),%rsi
  402d7d:	bf d0 91 40 00       	mov    $0x4091d0,%edi
  402d82:	31 c0                	xor    %eax,%eax
  402d84:	41 be ff ff ff ff    	mov    $0xffffffff,%r14d
  402d8a:	e8 c1 06 00 00       	call   403450 <dlerror@plt+0xf30>
  402d8f:	eb c5                	jmp    402d56 <dlerror@plt+0x836>
  402d91:	0f 1f 80 00 00 00 00 	nopl   0x0(%rax)
  402d98:	45 31 f6             	xor    %r14d,%r14d
  402d9b:	e9 35 ff ff ff       	jmp    402cd5 <dlerror@plt+0x7b5>
  402da0:	48 8b 54 24 08       	mov    0x8(%rsp),%rdx
  402da5:	be b8 93 40 00       	mov    $0x4093b8,%esi
  402daa:	bf 32 90 40 00       	mov    $0x409032,%edi
  402daf:	41 be ff ff ff ff    	mov    $0xffffffff,%r14d
  402db5:	e8 66 07 00 00       	call   403520 <dlerror@plt+0x1000>
  402dba:	e9 16 ff ff ff       	jmp    402cd5 <dlerror@plt+0x7b5>
  402dbf:	90                   	nop
  402dc0:	48 8b 54 24 08       	mov    0x8(%rsp),%rdx
  402dc5:	be 08 92 40 00       	mov    $0x409208,%esi
  402dca:	bf 20 90 40 00       	mov    $0x409020,%edi
  402dcf:	31 c0                	xor    %eax,%eax
  402dd1:	41 be ff ff ff ff    	mov    $0xffffffff,%r14d
  402dd7:	e8 44 07 00 00       	call   403520 <dlerror@plt+0x1000>
  402ddc:	e9 6d ff ff ff       	jmp    402d4e <dlerror@plt+0x82e>
  402de1:	bf c8 92 40 00       	mov    $0x4092c8,%edi
  402de6:	31 c0                	xor    %eax,%eax
  402de8:	41 be ff ff ff ff    	mov    $0xffffffff,%r14d
  402dee:	e8 5d 06 00 00       	call   403450 <dlerror@plt+0xf30>
  402df3:	e9 14 ff ff ff       	jmp    402d0c <dlerror@plt+0x7ec>
  402df8:	48 8b 54 24 08       	mov    0x8(%rsp),%rdx
  402dfd:	be 40 93 40 00       	mov    $0x409340,%esi
  402e02:	bf 2c 90 40 00       	mov    $0x40902c,%edi
  402e07:	31 c0                	xor    %eax,%eax
  402e09:	41 be ff ff ff ff    	mov    $0xffffffff,%r14d
  402e0f:	e8 0c 07 00 00       	call   403520 <dlerror@plt+0x1000>
  402e14:	e9 f3 fe ff ff       	jmp    402d0c <dlerror@plt+0x7ec>
  402e19:	48 8b 54 24 08       	mov    0x8(%rsp),%rdx
  402e1e:	be 78 93 40 00       	mov    $0x409378,%esi
  402e23:	31 c0                	xor    %eax,%eax
  402e25:	41 83 ce ff          	or     $0xffffffff,%r14d
  402e29:	bf 16 90 40 00       	mov    $0x409016,%edi
  402e2e:	e8 ed 06 00 00       	call   403520 <dlerror@plt+0x1000>
  402e33:	e9 fb fe ff ff       	jmp    402d33 <dlerror@plt+0x813>
  402e38:	0f 1f 84 00 00 00 00 	nopl   0x0(%rax,%rax,1)
  402e3f:	00 
  402e40:	41 55                	push   %r13
  402e42:	be 1d 90 40 00       	mov    $0x40901d,%esi
  402e47:	41 54                	push   %r12
  402e49:	55                   	push   %rbp
  402e4a:	53                   	push   %rbx
  402e4b:	48 89 fb             	mov    %rdi,%rbx
  402e4e:	48 83 c7 70          	add    $0x70,%rdi
  402e52:	48 83 ec 18          	sub    $0x18,%rsp
  402e56:	e8 05 f6 ff ff       	call   402460 <fopen@plt>
  402e5b:	48 85 c0             	test   %rax,%rax
  402e5e:	0f 84 d3 01 00 00    	je     403037 <dlerror@plt+0xb17>
  402e64:	48 89 c5             	mov    %rax,%rbp
  402e67:	ba 08 00 00 00       	mov    $0x8,%edx
  402e6c:	48 8b 05 8d 83 00 00 	mov    0x838d(%rip),%rax        # 40b200 <dlerror@plt+0x8ce0>
  402e73:	48 8d 74 24 08       	lea    0x8(%rsp),%rsi
  402e78:	48 89 ef             	mov    %rbp,%rdi
  402e7b:	41 bc ff ff ff ff    	mov    $0xffffffff,%r12d
  402e81:	48 89 44 24 08       	mov    %rax,0x8(%rsp)
  402e86:	48 c1 e8 18          	shr    $0x18,%rax
  402e8a:	83 c0 0c             	add    $0xc,%eax
  402e8d:	88 44 24 0b          	mov    %al,0xb(%rsp)
  402e91:	e8 fa 56 00 00       	call   408590 <dlerror@plt+0x6070>
  402e96:	49 89 c5             	mov    %rax,%r13
  402e99:	48 85 c0             	test   %rax,%rax
  402e9c:	75 1a                	jne    402eb8 <dlerror@plt+0x998>
  402e9e:	48 89 ef             	mov    %rbp,%rdi
  402ea1:	e8 ca f2 ff ff       	call   402170 <fclose@plt>
  402ea6:	48 83 c4 18          	add    $0x18,%rsp
  402eaa:	44 89 e0             	mov    %r12d,%eax
  402ead:	5b                   	pop    %rbx
  402eae:	5d                   	pop    %rbp
  402eaf:	41 5c                	pop    %r12
  402eb1:	41 5d                	pop    %r13
  402eb3:	c3                   	ret    
  402eb4:	0f 1f 40 00          	nopl   0x0(%rax)
  402eb8:	31 d2                	xor    %edx,%edx
  402eba:	48 89 c6             	mov    %rax,%rsi
  402ebd:	48 89 ef             	mov    %rbp,%rdi
  402ec0:	e8 8b f5 ff ff       	call   402450 <fseeko@plt>
  402ec5:	85 c0                	test   %eax,%eax
  402ec7:	0f 88 33 01 00 00    	js     403000 <dlerror@plt+0xae0>
  402ecd:	48 8d 7b 18          	lea    0x18(%rbx),%rdi
  402ed1:	48 89 e9             	mov    %rbp,%rcx
  402ed4:	ba 01 00 00 00       	mov    $0x1,%edx
  402ed9:	be 58 00 00 00       	mov    $0x58,%esi
  402ede:	e8 3d f2 ff ff       	call   402120 <fread@plt>
  402ee3:	48 85 c0             	test   %rax,%rax
  402ee6:	0f 84 fc 00 00 00    	je     402fe8 <dlerror@plt+0xac8>
  402eec:	8b 43 20             	mov    0x20(%rbx),%eax
  402eef:	8b 53 28             	mov    0x28(%rbx),%edx
  402ef2:	49 83 c5 58          	add    $0x58,%r13
  402ef6:	48 89 ef             	mov    %rbp,%rdi
  402ef9:	c7 83 78 50 00 00 00 	movl   $0x0,0x5078(%rbx)
  402f00:	00 00 00 
  402f03:	8b 73 24             	mov    0x24(%rbx),%esi
  402f06:	0f c8                	bswap  %eax
  402f08:	0f ca                	bswap  %edx
  402f0a:	89 43 20             	mov    %eax,0x20(%rbx)
  402f0d:	89 c0                	mov    %eax,%eax
  402f0f:	89 53 28             	mov    %edx,0x28(%rbx)
  402f12:	8b 53 2c             	mov    0x2c(%rbx),%edx
  402f15:	49 29 c5             	sub    %rax,%r13
  402f18:	0f ce                	bswap  %esi
  402f1a:	4c 89 2b             	mov    %r13,(%rbx)
  402f1d:	0f ca                	bswap  %edx
  402f1f:	89 73 24             	mov    %esi,0x24(%rbx)
  402f22:	89 f6                	mov    %esi,%esi
  402f24:	89 53 2c             	mov    %edx,0x2c(%rbx)
  402f27:	4c 01 ee             	add    %r13,%rsi
  402f2a:	89 15 84 b3 00 00    	mov    %edx,0xb384(%rip)        # 40e2b4 <stderr@GLIBC_2.2.5+0xc>
  402f30:	31 d2                	xor    %edx,%edx
  402f32:	e8 19 f5 ff ff       	call   402450 <fseeko@plt>
  402f37:	4c 63 6b 28          	movslq 0x28(%rbx),%r13
  402f3b:	4c 89 ef             	mov    %r13,%rdi
  402f3e:	e8 3d f4 ff ff       	call   402380 <malloc@plt>
  402f43:	48 89 43 08          	mov    %rax,0x8(%rbx)
  402f47:	48 89 c7             	mov    %rax,%rdi
  402f4a:	48 85 c0             	test   %rax,%rax
  402f4d:	0f 84 ef 00 00 00    	je     403042 <dlerror@plt+0xb22>
  402f53:	48 89 e9             	mov    %rbp,%rcx
  402f56:	ba 01 00 00 00       	mov    $0x1,%edx
  402f5b:	4c 89 ee             	mov    %r13,%rsi
  402f5e:	e8 bd f1 ff ff       	call   402120 <fread@plt>
  402f63:	48 85 c0             	test   %rax,%rax
  402f66:	74 68                	je     402fd0 <dlerror@plt+0xab0>
  402f68:	48 63 43 28          	movslq 0x28(%rbx),%rax
  402f6c:	48 03 43 08          	add    0x8(%rbx),%rax
  402f70:	48 89 ef             	mov    %rbp,%rdi
  402f73:	48 89 43 10          	mov    %rax,0x10(%rbx)
  402f77:	e8 94 f1 ff ff       	call   402110 <ferror@plt>
  402f7c:	41 89 c4             	mov    %eax,%r12d
  402f7f:	85 c0                	test   %eax,%eax
  402f81:	0f 85 99 00 00 00    	jne    403020 <dlerror@plt+0xb00>
  402f87:	48 8b 43 08          	mov    0x8(%rbx),%rax
  402f8b:	48 8b 73 10          	mov    0x10(%rbx),%rsi
  402f8f:	48 39 f0             	cmp    %rsi,%rax
  402f92:	0f 83 06 ff ff ff    	jae    402e9e <dlerror@plt+0x97e>
  402f98:	0f 1f 84 00 00 00 00 	nopl   0x0(%rax,%rax,1)
  402f9f:	00 
  402fa0:	8b 48 04             	mov    0x4(%rax),%ecx
  402fa3:	8b 10                	mov    (%rax),%edx
  402fa5:	0f c9                	bswap  %ecx
  402fa7:	89 48 04             	mov    %ecx,0x4(%rax)
  402faa:	8b 48 08             	mov    0x8(%rax),%ecx
  402fad:	0f ca                	bswap  %edx
  402faf:	89 10                	mov    %edx,(%rax)
  402fb1:	48 63 d2             	movslq %edx,%rdx
  402fb4:	0f c9                	bswap  %ecx
  402fb6:	89 48 08             	mov    %ecx,0x8(%rax)
  402fb9:	8b 48 0c             	mov    0xc(%rax),%ecx
  402fbc:	0f c9                	bswap  %ecx
  402fbe:	89 48 0c             	mov    %ecx,0xc(%rax)
  402fc1:	48 01 d0             	add    %rdx,%rax
  402fc4:	48 39 c6             	cmp    %rax,%rsi
  402fc7:	77 d7                	ja     402fa0 <dlerror@plt+0xa80>
  402fc9:	e9 d0 fe ff ff       	jmp    402e9e <dlerror@plt+0x97e>
  402fce:	66 90                	xchg   %ax,%ax
  402fd0:	be 51 90 40 00       	mov    $0x409051,%esi
  402fd5:	bf 26 90 40 00       	mov    $0x409026,%edi
  402fda:	e8 41 05 00 00       	call   403520 <dlerror@plt+0x1000>
  402fdf:	e9 ba fe ff ff       	jmp    402e9e <dlerror@plt+0x97e>
  402fe4:	0f 1f 40 00          	nopl   0x0(%rax)
  402fe8:	be 39 90 40 00       	mov    $0x409039,%esi
  402fed:	bf 26 90 40 00       	mov    $0x409026,%edi
  402ff2:	e8 29 05 00 00       	call   403520 <dlerror@plt+0x1000>
  402ff7:	e9 a2 fe ff ff       	jmp    402e9e <dlerror@plt+0x97e>
  402ffc:	0f 1f 40 00          	nopl   0x0(%rax)
  403000:	be f0 93 40 00       	mov    $0x4093f0,%esi
  403005:	bf 20 90 40 00       	mov    $0x409020,%edi
  40300a:	31 c0                	xor    %eax,%eax
  40300c:	e8 0f 05 00 00       	call   403520 <dlerror@plt+0x1000>
  403011:	e9 88 fe ff ff       	jmp    402e9e <dlerror@plt+0x97e>
  403016:	66 2e 0f 1f 84 00 00 	cs nopw 0x0(%rax,%rax,1)
  40301d:	00 00 00 
  403020:	bf 6b 90 40 00       	mov    $0x40906b,%edi
  403025:	31 c0                	xor    %eax,%eax
  403027:	41 bc ff ff ff ff    	mov    $0xffffffff,%r12d
  40302d:	e8 1e 04 00 00       	call   403450 <dlerror@plt+0xf30>
  403032:	e9 67 fe ff ff       	jmp    402e9e <dlerror@plt+0x97e>
  403037:	41 bc ff ff ff ff    	mov    $0xffffffff,%r12d
  40303d:	e9 64 fe ff ff       	jmp    402ea6 <dlerror@plt+0x986>
  403042:	be 18 94 40 00       	mov    $0x409418,%esi
  403047:	bf 16 90 40 00       	mov    $0x409016,%edi
  40304c:	31 c0                	xor    %eax,%eax
  40304e:	e8 cd 04 00 00       	call   403520 <dlerror@plt+0x1000>
  403053:	e9 46 fe ff ff       	jmp    402e9e <dlerror@plt+0x97e>
  403058:	0f 1f 84 00 00 00 00 	nopl   0x0(%rax,%rax,1)
  40305f:	00 
  403060:	8b 47 2c             	mov    0x2c(%rdi),%eax
  403063:	c3                   	ret    
  403064:	66 66 2e 0f 1f 84 00 	data16 cs nopw 0x0(%rax,%rax,1)
  40306b:	00 00 00 00 
  40306f:	90                   	nop
  403070:	41 54                	push   %r12
  403072:	be 88 50 00 00       	mov    $0x5088,%esi
  403077:	bf 01 00 00 00       	mov    $0x1,%edi
  40307c:	e8 ef f1 ff ff       	call   402270 <calloc@plt>
  403081:	49 89 c4             	mov    %rax,%r12
  403084:	48 85 c0             	test   %rax,%rax
  403087:	74 06                	je     40308f <dlerror@plt+0xb6f>
  403089:	4c 89 e0             	mov    %r12,%rax
  40308c:	41 5c                	pop    %r12
  40308e:	c3                   	ret    
  40308f:	be 40 94 40 00       	mov    $0x409440,%esi
  403094:	bf 7b 90 40 00       	mov    $0x40907b,%edi
  403099:	31 c0                	xor    %eax,%eax
  40309b:	e8 80 04 00 00       	call   403520 <dlerror@plt+0x1000>
  4030a0:	eb e7                	jmp    403089 <dlerror@plt+0xb69>
  4030a2:	66 66 2e 0f 1f 84 00 	data16 cs nopw 0x0(%rax,%rax,1)
  4030a9:	00 00 00 00 
  4030ad:	0f 1f 00             	nopl   (%rax)
  4030b0:	48 85 ff             	test   %rdi,%rdi
  4030b3:	74 1b                	je     4030d0 <dlerror@plt+0xbb0>
  4030b5:	55                   	push   %rbp
  4030b6:	48 89 fd             	mov    %rdi,%rbp
  4030b9:	48 8b 7f 08          	mov    0x8(%rdi),%rdi
  4030bd:	e8 ae ef ff ff       	call   402070 <free@plt>
  4030c2:	48 89 ef             	mov    %rbp,%rdi
  4030c5:	5d                   	pop    %rbp
  4030c6:	e9 a5 ef ff ff       	jmp    402070 <free@plt>
  4030cb:	0f 1f 44 00 00       	nopl   0x0(%rax,%rax,1)
  4030d0:	c3                   	ret    
  4030d1:	66 66 2e 0f 1f 84 00 	data16 cs nopw 0x0(%rax,%rax,1)
  4030d8:	00 00 00 00 
  4030dc:	0f 1f 40 00          	nopl   0x0(%rax)
  4030e0:	41 56                	push   %r14
  4030e2:	41 55                	push   %r13
  4030e4:	49 89 f5             	mov    %rsi,%r13
  4030e7:	41 54                	push   %r12
  4030e9:	55                   	push   %rbp
  4030ea:	48 89 fd             	mov    %rdi,%rbp
  4030ed:	53                   	push   %rbx
  4030ee:	48 8b 5f 08          	mov    0x8(%rdi),%rbx
  4030f2:	48 89 f7             	mov    %rsi,%rdi
  4030f5:	e8 b6 f0 ff ff       	call   4021b0 <strlen@plt>
  4030fa:	48 8b 6d 10          	mov    0x10(%rbp),%rbp
  4030fe:	48 39 eb             	cmp    %rbp,%rbx
  403101:	73 4d                	jae    403150 <dlerror@plt+0xc30>
  403103:	49 89 c6             	mov    %rax,%r14
  403106:	eb 13                	jmp    40311b <dlerror@plt+0xbfb>
  403108:	0f 1f 84 00 00 00 00 	nopl   0x0(%rax,%rax,1)
  40310f:	00 
  403110:	48 63 03             	movslq (%rbx),%rax
  403113:	48 01 c3             	add    %rax,%rbx
  403116:	48 39 eb             	cmp    %rbp,%rbx
  403119:	73 35                	jae    403150 <dlerror@plt+0xc30>
  40311b:	80 7b 11 6f          	cmpb   $0x6f,0x11(%rbx)
  40311f:	75 ef                	jne    403110 <dlerror@plt+0xbf0>
  403121:	4c 8d 63 12          	lea    0x12(%rbx),%r12
  403125:	4c 89 f2             	mov    %r14,%rdx
  403128:	4c 89 ee             	mov    %r13,%rsi
  40312b:	4c 89 e7             	mov    %r12,%rdi
  40312e:	e8 8d ef ff ff       	call   4020c0 <strncmp@plt>
  403133:	85 c0                	test   %eax,%eax
  403135:	75 d9                	jne    403110 <dlerror@plt+0xbf0>
  403137:	4b 8d 04 34          	lea    (%r12,%r14,1),%rax
  40313b:	42 80 7c 33 12 01    	cmpb   $0x1,0x12(%rbx,%r14,1)
  403141:	5b                   	pop    %rbx
  403142:	48 83 d8 ff          	sbb    $0xffffffffffffffff,%rax
  403146:	5d                   	pop    %rbp
  403147:	41 5c                	pop    %r12
  403149:	41 5d                	pop    %r13
  40314b:	41 5e                	pop    %r14
  40314d:	c3                   	ret    
  40314e:	66 90                	xchg   %ax,%ax
  403150:	5b                   	pop    %rbx
  403151:	31 c0                	xor    %eax,%eax
  403153:	5d                   	pop    %rbp
  403154:	41 5c                	pop    %r12
  403156:	41 5d                	pop    %r13
  403158:	41 5e                	pop    %r14
  40315a:	c3                   	ret    
  40315b:	0f 1f 44 00 00       	nopl   0x0(%rax,%rax,1)
  403160:	41 55                	push   %r13
  403162:	48 89 f1             	mov    %rsi,%rcx
  403165:	31 c0                	xor    %eax,%eax
  403167:	41 54                	push   %r12
  403169:	49 89 d4             	mov    %rdx,%r12
  40316c:	ba a2 95 40 00       	mov    $0x4095a2,%edx
  403171:	55                   	push   %rbp
  403172:	48 89 f5             	mov    %rsi,%rbp
  403175:	be 00 10 00 00       	mov    $0x1000,%esi
  40317a:	53                   	push   %rbx
  40317b:	48 89 fb             	mov    %rdi,%rbx
  40317e:	48 83 c7 70          	add    $0x70,%rdi
  403182:	48 81 ec 08 20 00 00 	sub    $0x2008,%rsp
  403189:	e8 62 f0 ff ff       	call   4021f0 <snprintf@plt>
  40318e:	3d ff 0f 00 00       	cmp    $0xfff,%eax
  403193:	7e 13                	jle    4031a8 <dlerror@plt+0xc88>
  403195:	48 81 c4 08 20 00 00 	add    $0x2008,%rsp
  40319c:	31 c0                	xor    %eax,%eax
  40319e:	5b                   	pop    %rbx
  40319f:	5d                   	pop    %rbp
  4031a0:	41 5c                	pop    %r12
  4031a2:	41 5d                	pop    %r13
  4031a4:	c3                   	ret    
  4031a5:	0f 1f 00             	nopl   (%rax)
  4031a8:	31 c0                	xor    %eax,%eax
  4031aa:	4c 89 e1             	mov    %r12,%rcx
  4031ad:	ba a2 95 40 00       	mov    $0x4095a2,%edx
  4031b2:	be 00 10 00 00       	mov    $0x1000,%esi
  4031b7:	48 8d bb 70 10 00 00 	lea    0x1070(%rbx),%rdi
  4031be:	e8 2d f0 ff ff       	call   4021f0 <snprintf@plt>
  4031c3:	3d ff 0f 00 00       	cmp    $0xfff,%eax
  4031c8:	7f cb                	jg     403195 <dlerror@plt+0xc75>
  4031ca:	48 89 df             	mov    %rbx,%rdi
  4031cd:	e8 6e fc ff ff       	call   402e40 <dlerror@plt+0x920>
  4031d2:	85 c0                	test   %eax,%eax
  4031d4:	75 bf                	jne    403195 <dlerror@plt+0xc75>
  4031d6:	48 8b 53 08          	mov    0x8(%rbx),%rdx
  4031da:	48 8b 4b 10          	mov    0x10(%rbx),%rcx
  4031de:	c7 83 70 50 00 00 00 	movl   $0x0,0x5070(%rbx)
  4031e5:	00 00 00 
  4031e8:	48 39 d1             	cmp    %rdx,%rcx
  4031eb:	76 35                	jbe    403222 <dlerror@plt+0xd02>
  4031ed:	0f 1f 00             	nopl   (%rax)
  4031f0:	0f b6 42 11          	movzbl 0x11(%rdx),%eax
  4031f4:	83 e8 5a             	sub    $0x5a,%eax
  4031f7:	3c 1e                	cmp    $0x1e,%al
  4031f9:	77 0d                	ja     403208 <dlerror@plt+0xce8>
  4031fb:	0f b6 c0             	movzbl %al,%eax
  4031fe:	ff 24 c5 98 94 40 00 	jmp    *0x409498(,%rax,8)
  403205:	0f 1f 00             	nopl   (%rax)
  403208:	48 63 02             	movslq (%rdx),%rax
  40320b:	48 01 c2             	add    %rax,%rdx
  40320e:	48 39 d1             	cmp    %rdx,%rcx
  403211:	77 dd                	ja     4031f0 <dlerror@plt+0xcd0>
  403213:	eb 0d                	jmp    403222 <dlerror@plt+0xd02>
  403215:	0f 1f 00             	nopl   (%rax)
  403218:	c7 83 70 50 00 00 01 	movl   $0x1,0x5070(%rbx)
  40321f:	00 00 00 
  403222:	4c 89 e6             	mov    %r12,%rsi
  403225:	48 89 e7             	mov    %rsp,%rdi
  403228:	4c 8d ab 70 20 00 00 	lea    0x2070(%rbx),%r13
  40322f:	e8 0c 11 00 00       	call   404340 <dlerror@plt+0x1e20>
  403234:	be 82 90 40 00       	mov    $0x409082,%esi
  403239:	48 89 df             	mov    %rbx,%rdi
  40323c:	e8 9f fe ff ff       	call   4030e0 <dlerror@plt+0xbc0>
  403241:	48 89 ee             	mov    %rbp,%rsi
  403244:	49 89 c4             	mov    %rax,%r12
  403247:	48 85 c0             	test   %rax,%rax
  40324a:	74 0a                	je     403256 <dlerror@plt+0xd36>
  40324c:	8b 83 70 50 00 00    	mov    0x5070(%rbx),%eax
  403252:	85 c0                	test   %eax,%eax
  403254:	74 3a                	je     403290 <dlerror@plt+0xd70>
  403256:	4c 89 ef             	mov    %r13,%rdi
  403259:	e8 e2 10 00 00       	call   404340 <dlerror@plt+0x1e20>
  40325e:	48 8d bb 70 40 00 00 	lea    0x4070(%rbx),%rdi
  403265:	4c 89 ee             	mov    %r13,%rsi
  403268:	ba 00 10 00 00       	mov    $0x1000,%edx
  40326d:	c7 83 74 50 00 00 00 	movl   $0x0,0x5074(%rbx)
  403274:	00 00 00 
  403277:	e8 74 f1 ff ff       	call   4023f0 <__strcpy_chk@plt>
  40327c:	48 81 c4 08 20 00 00 	add    $0x2008,%rsp
  403283:	b8 01 00 00 00       	mov    $0x1,%eax
  403288:	5b                   	pop    %rbx
  403289:	5d                   	pop    %rbp
  40328a:	41 5c                	pop    %r12
  40328c:	41 5d                	pop    %r13
  40328e:	c3                   	ret    
  40328f:	90                   	nop
  403290:	48 8d bc 24 00 10 00 	lea    0x1000(%rsp),%rdi
  403297:	00 
  403298:	e8 a3 10 00 00       	call   404340 <dlerror@plt+0x1e20>
  40329d:	4c 89 e2             	mov    %r12,%rdx
  4032a0:	48 8d b4 24 00 10 00 	lea    0x1000(%rsp),%rsi
  4032a7:	00 
  4032a8:	4c 89 ef             	mov    %r13,%rdi
  4032ab:	e8 20 11 00 00       	call   4043d0 <dlerror@plt+0x1eb0>
  4032b0:	eb ac                	jmp    40325e <dlerror@plt+0xd3e>
  4032b2:	66 66 2e 0f 1f 84 00 	data16 cs nopw 0x0(%rax,%rax,1)
  4032b9:	00 00 00 00 
  4032bd:	0f 1f 00             	nopl   (%rax)
  4032c0:	41 54                	push   %r12
  4032c2:	55                   	push   %rbp
  4032c3:	53                   	push   %rbx
  4032c4:	4c 8b 67 08          	mov    0x8(%rdi),%r12
  4032c8:	48 8b 6f 10          	mov    0x10(%rdi),%rbp
  4032cc:	49 39 ec             	cmp    %rbp,%r12
  4032cf:	73 37                	jae    403308 <dlerror@plt+0xde8>
  4032d1:	48 89 f3             	mov    %rsi,%rbx
  4032d4:	eb 16                	jmp    4032ec <dlerror@plt+0xdcc>
  4032d6:	66 2e 0f 1f 84 00 00 	cs nopw 0x0(%rax,%rax,1)
  4032dd:	00 00 00 
  4032e0:	49 63 04 24          	movslq (%r12),%rax
  4032e4:	49 01 c4             	add    %rax,%r12
  4032e7:	49 39 ec             	cmp    %rbp,%r12
  4032ea:	73 1c                	jae    403308 <dlerror@plt+0xde8>
  4032ec:	49 8d 7c 24 12       	lea    0x12(%r12),%rdi
  4032f1:	48 89 de             	mov    %rbx,%rsi
  4032f4:	e8 87 ef ff ff       	call   402280 <strcmp@plt>
  4032f9:	85 c0                	test   %eax,%eax
  4032fb:	75 e3                	jne    4032e0 <dlerror@plt+0xdc0>
  4032fd:	4c 89 e0             	mov    %r12,%rax
  403300:	5b                   	pop    %rbx
  403301:	5d                   	pop    %rbp
  403302:	41 5c                	pop    %r12
  403304:	c3                   	ret    
  403305:	0f 1f 00             	nopl   (%rax)
  403308:	45 31 e4             	xor    %r12d,%r12d
  40330b:	5b                   	pop    %rbx
  40330c:	5d                   	pop    %rbp
  40330d:	4c 89 e0             	mov    %r12,%rax
  403310:	41 5c                	pop    %r12
  403312:	c3                   	ret    
  403313:	66 66 2e 0f 1f 84 00 	data16 cs nopw 0x0(%rax,%rax,1)
  40331a:	00 00 00 00 
  40331e:	66 90                	xchg   %ax,%ax
  403320:	41 54                	push   %r12
  403322:	45 31 e4             	xor    %r12d,%r12d
  403325:	53                   	push   %rbx
  403326:	48 83 ec 08          	sub    $0x8,%rsp
  40332a:	83 bf 74 50 00 00 01 	cmpl   $0x1,0x5074(%rdi)
  403331:	74 2a                	je     40335d <dlerror@plt+0xe3d>
  403333:	be 99 90 40 00       	mov    $0x409099,%esi
  403338:	48 89 fb             	mov    %rdi,%rbx
  40333b:	e8 a0 fd ff ff       	call   4030e0 <dlerror@plt+0xbc0>
  403340:	48 8d bb 70 30 00 00 	lea    0x3070(%rbx),%rdi
  403347:	48 89 c6             	mov    %rax,%rsi
  40334a:	e8 31 47 00 00       	call   407a80 <dlerror@plt+0x5560>
  40334f:	85 c0                	test   %eax,%eax
  403351:	74 15                	je     403368 <dlerror@plt+0xe48>
  403353:	c7 83 74 50 00 00 01 	movl   $0x1,0x5074(%rbx)
  40335a:	00 00 00 
  40335d:	48 83 c4 08          	add    $0x8,%rsp
  403361:	44 89 e0             	mov    %r12d,%eax
  403364:	5b                   	pop    %rbx
  403365:	41 5c                	pop    %r12
  403367:	c3                   	ret    
  403368:	bf 70 94 40 00       	mov    $0x409470,%edi
  40336d:	41 bc ff ff ff ff    	mov    $0xffffffff,%r12d
  403373:	e8 d8 00 00 00       	call   403450 <dlerror@plt+0xf30>
  403378:	eb e3                	jmp    40335d <dlerror@plt+0xe3d>
  40337a:	66 0f 1f 44 00 00    	nopw   0x0(%rax,%rax,1)
  403380:	48 89 fa             	mov    %rdi,%rdx
  403383:	48 8b 3d 1e af 00 00 	mov    0xaf1e(%rip),%rdi        # 40e2a8 <stderr@GLIBC_2.2.5>
  40338a:	48 89 f1             	mov    %rsi,%rcx
  40338d:	be 01 00 00 00       	mov    $0x1,%esi
  403392:	e9 e9 ec ff ff       	jmp    402080 <__vfprintf_chk@plt>
  403397:	66 0f 1f 84 00 00 00 	nopw   0x0(%rax,%rax,1)
  40339e:	00 00 
  4033a0:	48 81 ec d8 00 00 00 	sub    $0xd8,%rsp
  4033a7:	49 89 fa             	mov    %rdi,%r10
  4033aa:	48 89 74 24 28       	mov    %rsi,0x28(%rsp)
  4033af:	48 89 54 24 30       	mov    %rdx,0x30(%rsp)
  4033b4:	48 89 4c 24 38       	mov    %rcx,0x38(%rsp)
  4033b9:	4c 89 44 24 40       	mov    %r8,0x40(%rsp)
  4033be:	4c 89 4c 24 48       	mov    %r9,0x48(%rsp)
  4033c3:	84 c0                	test   %al,%al
  4033c5:	74 37                	je     4033fe <dlerror@plt+0xede>
  4033c7:	0f 29 44 24 50       	movaps %xmm0,0x50(%rsp)
  4033cc:	0f 29 4c 24 60       	movaps %xmm1,0x60(%rsp)
  4033d1:	0f 29 54 24 70       	movaps %xmm2,0x70(%rsp)
  4033d6:	0f 29 9c 24 80 00 00 	movaps %xmm3,0x80(%rsp)
  4033dd:	00 
  4033de:	0f 29 a4 24 90 00 00 	movaps %xmm4,0x90(%rsp)
  4033e5:	00 
  4033e6:	0f 29 ac 24 a0 00 00 	movaps %xmm5,0xa0(%rsp)
  4033ed:	00 
  4033ee:	0f 29 b4 24 b0 00 00 	movaps %xmm6,0xb0(%rsp)
  4033f5:	00 
  4033f6:	0f 29 bc 24 c0 00 00 	movaps %xmm7,0xc0(%rsp)
  4033fd:	00 
  4033fe:	48 8d 84 24 e0 00 00 	lea    0xe0(%rsp),%rax
  403405:	00 
  403406:	48 8d 4c 24 08       	lea    0x8(%rsp),%rcx
  40340b:	4c 89 d2             	mov    %r10,%rdx
  40340e:	be 01 00 00 00       	mov    $0x1,%esi
  403413:	48 8b 3d 8e ae 00 00 	mov    0xae8e(%rip),%rdi        # 40e2a8 <stderr@GLIBC_2.2.5>
  40341a:	48 89 44 24 10       	mov    %rax,0x10(%rsp)
  40341f:	48 8d 44 24 20       	lea    0x20(%rsp),%rax
  403424:	c7 44 24 08 08 00 00 	movl   $0x8,0x8(%rsp)
  40342b:	00 
  40342c:	c7 44 24 0c 30 00 00 	movl   $0x30,0xc(%rsp)
  403433:	00 
  403434:	48 89 44 24 18       	mov    %rax,0x18(%rsp)
  403439:	e8 42 ec ff ff       	call   402080 <__vfprintf_chk@plt>
  40343e:	48 81 c4 d8 00 00 00 	add    $0xd8,%rsp
  403445:	c3                   	ret    
  403446:	66 2e 0f 1f 84 00 00 	cs nopw 0x0(%rax,%rax,1)
  40344d:	00 00 00 
  403450:	41 54                	push   %r12
  403452:	49 89 fc             	mov    %rdi,%r12
  403455:	48 81 ec d0 00 00 00 	sub    $0xd0,%rsp
  40345c:	48 89 74 24 28       	mov    %rsi,0x28(%rsp)
  403461:	48 89 54 24 30       	mov    %rdx,0x30(%rsp)
  403466:	48 89 4c 24 38       	mov    %rcx,0x38(%rsp)
  40346b:	4c 89 44 24 40       	mov    %r8,0x40(%rsp)
  403470:	4c 89 4c 24 48       	mov    %r9,0x48(%rsp)
  403475:	84 c0                	test   %al,%al
  403477:	74 37                	je     4034b0 <dlerror@plt+0xf90>
  403479:	0f 29 44 24 50       	movaps %xmm0,0x50(%rsp)
  40347e:	0f 29 4c 24 60       	movaps %xmm1,0x60(%rsp)
  403483:	0f 29 54 24 70       	movaps %xmm2,0x70(%rsp)
  403488:	0f 29 9c 24 80 00 00 	movaps %xmm3,0x80(%rsp)
  40348f:	00 
  403490:	0f 29 a4 24 90 00 00 	movaps %xmm4,0x90(%rsp)
  403497:	00 
  403498:	0f 29 ac 24 a0 00 00 	movaps %xmm5,0xa0(%rsp)
  40349f:	00 
  4034a0:	0f 29 b4 24 b0 00 00 	movaps %xmm6,0xb0(%rsp)
  4034a7:	00 
  4034a8:	0f 29 bc 24 c0 00 00 	movaps %xmm7,0xc0(%rsp)
  4034af:	00 
  4034b0:	e8 ab ec ff ff       	call   402160 <getpid@plt>
  4034b5:	ba 90 95 40 00       	mov    $0x409590,%edx
  4034ba:	be 01 00 00 00       	mov    $0x1,%esi
  4034bf:	48 8b 3d e2 ad 00 00 	mov    0xade2(%rip),%rdi        # 40e2a8 <stderr@GLIBC_2.2.5>
  4034c6:	89 c1                	mov    %eax,%ecx
  4034c8:	31 c0                	xor    %eax,%eax
  4034ca:	e8 11 f0 ff ff       	call   4024e0 <__fprintf_chk@plt>
  4034cf:	48 8d 84 24 e0 00 00 	lea    0xe0(%rsp),%rax
  4034d6:	00 
  4034d7:	48 8d 4c 24 08       	lea    0x8(%rsp),%rcx
  4034dc:	4c 89 e2             	mov    %r12,%rdx
  4034df:	48 8b 3d c2 ad 00 00 	mov    0xadc2(%rip),%rdi        # 40e2a8 <stderr@GLIBC_2.2.5>
  4034e6:	48 89 44 24 10       	mov    %rax,0x10(%rsp)
  4034eb:	be 01 00 00 00       	mov    $0x1,%esi
  4034f0:	48 8d 44 24 20       	lea    0x20(%rsp),%rax
  4034f5:	c7 44 24 08 08 00 00 	movl   $0x8,0x8(%rsp)
  4034fc:	00 
  4034fd:	c7 44 24 0c 30 00 00 	movl   $0x30,0xc(%rsp)
  403504:	00 
  403505:	48 89 44 24 18       	mov    %rax,0x18(%rsp)
  40350a:	e8 71 eb ff ff       	call   402080 <__vfprintf_chk@plt>
  40350f:	48 81 c4 d0 00 00 00 	add    $0xd0,%rsp
  403516:	41 5c                	pop    %r12
  403518:	c3                   	ret    
  403519:	0f 1f 80 00 00 00 00 	nopl   0x0(%rax)
  403520:	55                   	push   %rbp
  403521:	49 89 f2             	mov    %rsi,%r10
  403524:	48 89 fd             	mov    %rdi,%rbp
  403527:	48 81 ec d0 00 00 00 	sub    $0xd0,%rsp
  40352e:	48 89 54 24 30       	mov    %rdx,0x30(%rsp)
  403533:	48 89 4c 24 38       	mov    %rcx,0x38(%rsp)
  403538:	4c 89 44 24 40       	mov    %r8,0x40(%rsp)
  40353d:	4c 89 4c 24 48       	mov    %r9,0x48(%rsp)
  403542:	84 c0                	test   %al,%al
  403544:	74 37                	je     40357d <dlerror@plt+0x105d>
  403546:	0f 29 44 24 50       	movaps %xmm0,0x50(%rsp)
  40354b:	0f 29 4c 24 60       	movaps %xmm1,0x60(%rsp)
  403550:	0f 29 54 24 70       	movaps %xmm2,0x70(%rsp)
  403555:	0f 29 9c 24 80 00 00 	movaps %xmm3,0x80(%rsp)
  40355c:	00 
  40355d:	0f 29 a4 24 90 00 00 	movaps %xmm4,0x90(%rsp)
  403564:	00 
  403565:	0f 29 ac 24 a0 00 00 	movaps %xmm5,0xa0(%rsp)
  40356c:	00 
  40356d:	0f 29 b4 24 b0 00 00 	movaps %xmm6,0xb0(%rsp)
  403574:	00 
  403575:	0f 29 bc 24 c0 00 00 	movaps %xmm7,0xc0(%rsp)
  40357c:	00 
  40357d:	48 8d 84 24 e0 00 00 	lea    0xe0(%rsp),%rax
  403584:	00 
  403585:	48 8d 4c 24 08       	lea    0x8(%rsp),%rcx
  40358a:	4c 89 d2             	mov    %r10,%rdx
  40358d:	be 01 00 00 00       	mov    $0x1,%esi
  403592:	48 8b 3d 0f ad 00 00 	mov    0xad0f(%rip),%rdi        # 40e2a8 <stderr@GLIBC_2.2.5>
  403599:	48 89 44 24 10       	mov    %rax,0x10(%rsp)
  40359e:	48 8d 44 24 20       	lea    0x20(%rsp),%rax
  4035a3:	c7 44 24 08 10 00 00 	movl   $0x10,0x8(%rsp)
  4035aa:	00 
  4035ab:	c7 44 24 0c 30 00 00 	movl   $0x30,0xc(%rsp)
  4035b2:	00 
  4035b3:	48 89 44 24 18       	mov    %rax,0x18(%rsp)
  4035b8:	e8 c3 ea ff ff       	call   402080 <__vfprintf_chk@plt>
  4035bd:	48 89 ef             	mov    %rbp,%rdi
  4035c0:	e8 ab ee ff ff       	call   402470 <perror@plt>
  4035c5:	48 81 c4 d0 00 00 00 	add    $0xd0,%rsp
  4035cc:	5d                   	pop    %rbp
  4035cd:	c3                   	ret    
  4035ce:	66 90                	xchg   %ax,%ax
  4035d0:	55                   	push   %rbp
  4035d1:	48 89 fd             	mov    %rdi,%rbp
  4035d4:	48 81 ec 60 01 00 00 	sub    $0x160,%rsp
  4035db:	48 89 94 24 c0 00 00 	mov    %rdx,0xc0(%rsp)
  4035e2:	00 
  4035e3:	48 89 8c 24 c8 00 00 	mov    %rcx,0xc8(%rsp)
  4035ea:	00 
  4035eb:	4c 89 84 24 d0 00 00 	mov    %r8,0xd0(%rsp)
  4035f2:	00 
  4035f3:	4c 89 8c 24 d8 00 00 	mov    %r9,0xd8(%rsp)
  4035fa:	00 
  4035fb:	84 c0                	test   %al,%al
  4035fd:	74 40                	je     40363f <dlerror@plt+0x111f>
  4035ff:	0f 29 84 24 e0 00 00 	movaps %xmm0,0xe0(%rsp)
  403606:	00 
  403607:	0f 29 8c 24 f0 00 00 	movaps %xmm1,0xf0(%rsp)
  40360e:	00 
  40360f:	0f 29 94 24 00 01 00 	movaps %xmm2,0x100(%rsp)
  403616:	00 
  403617:	0f 29 9c 24 10 01 00 	movaps %xmm3,0x110(%rsp)
  40361e:	00 
  40361f:	0f 29 a4 24 20 01 00 	movaps %xmm4,0x120(%rsp)
  403626:	00 
  403627:	0f 29 ac 24 30 01 00 	movaps %xmm5,0x130(%rsp)
  40362e:	00 
  40362f:	0f 29 b4 24 40 01 00 	movaps %xmm6,0x140(%rsp)
  403636:	00 
  403637:	0f 29 bc 24 50 01 00 	movaps %xmm7,0x150(%rsp)
  40363e:	00 
  40363f:	49 89 f0             	mov    %rsi,%r8
  403642:	4c 8d 4c 24 08       	lea    0x8(%rsp),%r9
  403647:	ba 01 00 00 00       	mov    $0x1,%edx
  40364c:	48 89 ef             	mov    %rbp,%rdi
  40364f:	48 8d 84 24 70 01 00 	lea    0x170(%rsp),%rax
  403656:	00 
  403657:	48 c7 c1 ff ff ff ff 	mov    $0xffffffffffffffff,%rcx
  40365e:	be 00 10 00 00       	mov    $0x1000,%esi
  403663:	c7 44 24 08 10 00 00 	movl   $0x10,0x8(%rsp)
  40366a:	00 
  40366b:	48 89 44 24 10       	mov    %rax,0x10(%rsp)
  403670:	48 8d 84 24 b0 00 00 	lea    0xb0(%rsp),%rax
  403677:	00 
  403678:	c7 44 24 0c 30 00 00 	movl   $0x30,0xc(%rsp)
  40367f:	00 
  403680:	48 89 44 24 18       	mov    %rax,0x18(%rsp)
  403685:	e8 36 ed ff ff       	call   4023c0 <__vsnprintf_chk@plt>
  40368a:	3d ff 0f 00 00       	cmp    $0xfff,%eax
  40368f:	7f 1f                	jg     4036b0 <dlerror@plt+0x1190>
  403691:	48 8d 54 24 20       	lea    0x20(%rsp),%rdx
  403696:	48 89 ee             	mov    %rbp,%rsi
  403699:	bf 01 00 00 00       	mov    $0x1,%edi
  40369e:	e8 ad ec ff ff       	call   402350 <__xstat@plt>
  4036a3:	48 81 c4 60 01 00 00 	add    $0x160,%rsp
  4036aa:	5d                   	pop    %rbp
  4036ab:	c3                   	ret    
  4036ac:	0f 1f 40 00          	nopl   0x0(%rax)
  4036b0:	b8 ff ff ff ff       	mov    $0xffffffff,%eax
  4036b5:	eb ec                	jmp    4036a3 <dlerror@plt+0x1183>
  4036b7:	66 0f 1f 84 00 00 00 	nopw   0x0(%rax,%rax,1)
  4036be:	00 00 
  4036c0:	55                   	push   %rbp
  4036c1:	48 89 d1             	mov    %rdx,%rcx
  4036c4:	48 89 f5             	mov    %rsi,%rbp
  4036c7:	31 c0                	xor    %eax,%eax
  4036c9:	53                   	push   %rbx
  4036ca:	ba a2 95 40 00       	mov    $0x4095a2,%edx
  4036cf:	be 00 10 00 00       	mov    $0x1000,%esi
  4036d4:	48 89 fb             	mov    %rdi,%rbx
  4036d7:	48 83 ec 08          	sub    $0x8,%rsp
  4036db:	e8 10 eb ff ff       	call   4021f0 <snprintf@plt>
  4036e0:	3d ff 0f 00 00       	cmp    $0xfff,%eax
  4036e5:	7f 39                	jg     403720 <dlerror@plt+0x1200>
  4036e7:	be 3a 00 00 00       	mov    $0x3a,%esi
  4036ec:	48 89 df             	mov    %rbx,%rdi
  4036ef:	e8 dc ea ff ff       	call   4021d0 <strchr@plt>
  4036f4:	48 85 c0             	test   %rax,%rax
  4036f7:	74 27                	je     403720 <dlerror@plt+0x1200>
  4036f9:	c6 00 00             	movb   $0x0,(%rax)
  4036fc:	48 8d 70 01          	lea    0x1(%rax),%rsi
  403700:	48 89 ef             	mov    %rbp,%rdi
  403703:	e8 c8 e9 ff ff       	call   4020d0 <strcpy@plt>
  403708:	80 3b 00             	cmpb   $0x0,(%rbx)
  40370b:	74 13                	je     403720 <dlerror@plt+0x1200>
  40370d:	80 7d 00 00          	cmpb   $0x0,0x0(%rbp)
  403711:	74 0d                	je     403720 <dlerror@plt+0x1200>
  403713:	31 c0                	xor    %eax,%eax
  403715:	48 83 c4 08          	add    $0x8,%rsp
  403719:	5b                   	pop    %rbx
  40371a:	5d                   	pop    %rbp
  40371b:	c3                   	ret    
  40371c:	0f 1f 40 00          	nopl   0x0(%rax)
  403720:	b8 ff ff ff ff       	mov    $0xffffffff,%eax
  403725:	eb ee                	jmp    403715 <dlerror@plt+0x11f5>
  403727:	66 0f 1f 84 00 00 00 	nopw   0x0(%rax,%rax,1)
  40372e:	00 00 
  403730:	41 56                	push   %r14
  403732:	48 89 f2             	mov    %rsi,%rdx
  403735:	41 55                	push   %r13
  403737:	41 54                	push   %r12
  403739:	55                   	push   %rbp
  40373a:	48 89 fd             	mov    %rdi,%rbp
  40373d:	53                   	push   %rbx
  40373e:	48 81 ec 00 60 00 00 	sub    $0x6000,%rsp
  403745:	4c 8b 2f             	mov    (%rdi),%r13
  403748:	48 8d b4 24 00 20 00 	lea    0x2000(%rsp),%rsi
  40374f:	00 
  403750:	48 89 e7             	mov    %rsp,%rdi
  403753:	e8 68 ff ff ff       	call   4036c0 <dlerror@plt+0x11a0>
  403758:	41 89 c4             	mov    %eax,%r12d
  40375b:	83 f8 ff             	cmp    $0xffffffff,%eax
  40375e:	0f 84 7a 01 00 00    	je     4038de <dlerror@plt+0x13be>
  403764:	49 8d b5 70 10 00 00 	lea    0x1070(%r13),%rsi
  40376b:	48 8d bc 24 00 30 00 	lea    0x3000(%rsp),%rdi
  403772:	00 
  403773:	e8 c8 0b 00 00       	call   404340 <dlerror@plt+0x1e20>
  403778:	48 89 e6             	mov    %rsp,%rsi
  40377b:	48 8d bc 24 00 10 00 	lea    0x1000(%rsp),%rdi
  403782:	00 
  403783:	4c 8d b4 24 00 40 00 	lea    0x4000(%rsp),%r14
  40378a:	00 
  40378b:	e8 b0 0b 00 00       	call   404340 <dlerror@plt+0x1e20>
  403790:	be 82 90 40 00       	mov    $0x409082,%esi
  403795:	4c 89 ef             	mov    %r13,%rdi
  403798:	e8 43 f9 ff ff       	call   4030e0 <dlerror@plt+0xbc0>
  40379d:	48 85 c0             	test   %rax,%rax
  4037a0:	0f 84 92 01 00 00    	je     403938 <dlerror@plt+0x1418>
  4037a6:	48 83 ec 08          	sub    $0x8,%rsp
  4037aa:	41 b9 2f 00 00 00    	mov    $0x2f,%r9d
  4037b0:	be 96 95 40 00       	mov    $0x409596,%esi
  4037b5:	4c 89 f7             	mov    %r14,%rdi
  4037b8:	48 8d 8c 24 08 20 00 	lea    0x2008(%rsp),%rcx
  4037bf:	00 
  4037c0:	51                   	push   %rcx
  4037c1:	b9 2f 00 00 00       	mov    $0x2f,%ecx
  4037c6:	6a 2f                	push   $0x2f
  4037c8:	50                   	push   %rax
  4037c9:	31 c0                	xor    %eax,%eax
  4037cb:	4c 8d 84 24 20 10 00 	lea    0x1020(%rsp),%r8
  4037d2:	00 
  4037d3:	48 8d 94 24 20 30 00 	lea    0x3020(%rsp),%rdx
  4037da:	00 
  4037db:	e8 f0 fd ff ff       	call   4035d0 <dlerror@plt+0x10b0>
  4037e0:	48 83 c4 20          	add    $0x20,%rsp
  4037e4:	41 89 c4             	mov    %eax,%r12d
  4037e7:	45 85 e4             	test   %r12d,%r12d
  4037ea:	0f 84 08 01 00 00    	je     4038f8 <dlerror@plt+0x13d8>
  4037f0:	31 c0                	xor    %eax,%eax
  4037f2:	49 89 e0             	mov    %rsp,%r8
  4037f5:	b9 2f 00 00 00       	mov    $0x2f,%ecx
  4037fa:	be a5 95 40 00       	mov    $0x4095a5,%esi
  4037ff:	48 8d 94 24 00 30 00 	lea    0x3000(%rsp),%rdx
  403806:	00 
  403807:	48 8d bc 24 00 50 00 	lea    0x5000(%rsp),%rdi
  40380e:	00 
  40380f:	e8 bc fd ff ff       	call   4035d0 <dlerror@plt+0x10b0>
  403814:	85 c0                	test   %eax,%eax
  403816:	74 2c                	je     403844 <dlerror@plt+0x1324>
  403818:	31 c0                	xor    %eax,%eax
  40381a:	49 89 e0             	mov    %rsp,%r8
  40381d:	b9 2f 00 00 00       	mov    $0x2f,%ecx
  403822:	be b0 95 40 00       	mov    $0x4095b0,%esi
  403827:	48 8d 94 24 00 30 00 	lea    0x3000(%rsp),%rdx
  40382e:	00 
  40382f:	48 8d bc 24 00 50 00 	lea    0x5000(%rsp),%rdi
  403836:	00 
  403837:	e8 94 fd ff ff       	call   4035d0 <dlerror@plt+0x10b0>
  40383c:	85 c0                	test   %eax,%eax
  40383e:	0f 85 1c 02 00 00    	jne    403a60 <dlerror@plt+0x1540>
  403844:	4c 8b 6d 08          	mov    0x8(%rbp),%r13
  403848:	4d 85 ed             	test   %r13,%r13
  40384b:	0f 84 28 01 00 00    	je     403979 <dlerror@plt+0x1459>
  403851:	4c 8d 65 10          	lea    0x10(%rbp),%r12
  403855:	eb 1d                	jmp    403874 <dlerror@plt+0x1354>
  403857:	66 0f 1f 84 00 00 00 	nopw   0x0(%rax,%rax,1)
  40385e:	00 00 
  403860:	4c 89 e3             	mov    %r12,%rbx
  403863:	4d 8b 2c 24          	mov    (%r12),%r13
  403867:	49 83 c4 08          	add    $0x8,%r12
  40386b:	4d 85 ed             	test   %r13,%r13
  40386e:	0f 84 0c 01 00 00    	je     403980 <dlerror@plt+0x1460>
  403874:	49 8d 7d 70          	lea    0x70(%r13),%rdi
  403878:	48 8d b4 24 00 50 00 	lea    0x5000(%rsp),%rsi
  40387f:	00 
  403880:	e8 fb e9 ff ff       	call   402280 <strcmp@plt>
  403885:	85 c0                	test   %eax,%eax
  403887:	75 d7                	jne    403860 <dlerror@plt+0x1340>
  403889:	49 8b 6d 08          	mov    0x8(%r13),%rbp
  40388d:	49 39 6d 10          	cmp    %rbp,0x10(%r13)
  403891:	77 1f                	ja     4038b2 <dlerror@plt+0x1392>
  403893:	e9 a0 01 00 00       	jmp    403a38 <dlerror@plt+0x1518>
  403898:	0f 1f 84 00 00 00 00 	nopl   0x0(%rax,%rax,1)
  40389f:	00 
  4038a0:	e8 fb f0 ff ff       	call   4029a0 <dlerror@plt+0x480>
  4038a5:	48 89 c5             	mov    %rax,%rbp
  4038a8:	49 3b 45 10          	cmp    0x10(%r13),%rax
  4038ac:	0f 83 86 01 00 00    	jae    403a38 <dlerror@plt+0x1518>
  4038b2:	48 8d 7d 12          	lea    0x12(%rbp),%rdi
  4038b6:	48 8d b4 24 00 20 00 	lea    0x2000(%rsp),%rsi
  4038bd:	00 
  4038be:	e8 bd e9 ff ff       	call   402280 <strcmp@plt>
  4038c3:	48 89 ee             	mov    %rbp,%rsi
  4038c6:	4c 89 ef             	mov    %r13,%rdi
  4038c9:	41 89 c4             	mov    %eax,%r12d
  4038cc:	85 c0                	test   %eax,%eax
  4038ce:	75 d0                	jne    4038a0 <dlerror@plt+0x1380>
  4038d0:	e8 db f2 ff ff       	call   402bb0 <dlerror@plt+0x690>
  4038d5:	83 f8 ff             	cmp    $0xffffffff,%eax
  4038d8:	0f 84 5a 01 00 00    	je     403a38 <dlerror@plt+0x1518>
  4038de:	48 81 c4 00 60 00 00 	add    $0x6000,%rsp
  4038e5:	44 89 e0             	mov    %r12d,%eax
  4038e8:	5b                   	pop    %rbx
  4038e9:	5d                   	pop    %rbp
  4038ea:	41 5c                	pop    %r12
  4038ec:	41 5d                	pop    %r13
  4038ee:	41 5e                	pop    %r14
  4038f0:	c3                   	ret    
  4038f1:	0f 1f 80 00 00 00 00 	nopl   0x0(%rax)
  4038f8:	49 8d b5 70 30 00 00 	lea    0x3070(%r13),%rsi
  4038ff:	48 8d 94 24 00 20 00 	lea    0x2000(%rsp),%rdx
  403906:	00 
  403907:	4c 89 f7             	mov    %r14,%rdi
  40390a:	e8 e1 45 00 00       	call   407ef0 <dlerror@plt+0x59d0>
  40390f:	83 f8 ff             	cmp    $0xffffffff,%eax
  403912:	75 ca                	jne    4038de <dlerror@plt+0x13be>
  403914:	4c 89 f2             	mov    %r14,%rdx
  403917:	bf 00 96 40 00       	mov    $0x409600,%edi
  40391c:	31 c0                	xor    %eax,%eax
  40391e:	41 bc ff ff ff ff    	mov    $0xffffffff,%r12d
  403924:	48 8d b4 24 00 20 00 	lea    0x2000(%rsp),%rsi
  40392b:	00 
  40392c:	e8 1f fb ff ff       	call   403450 <dlerror@plt+0xf30>
  403931:	eb ab                	jmp    4038de <dlerror@plt+0x13be>
  403933:	0f 1f 44 00 00       	nopl   0x0(%rax,%rax,1)
  403938:	48 83 ec 08          	sub    $0x8,%rsp
  40393c:	41 b9 2f 00 00 00    	mov    $0x2f,%r9d
  403942:	b9 2f 00 00 00       	mov    $0x2f,%ecx
  403947:	4c 89 f7             	mov    %r14,%rdi
  40394a:	48 8d 84 24 08 20 00 	lea    0x2008(%rsp),%rax
  403951:	00 
  403952:	be 9a 95 40 00       	mov    $0x40959a,%esi
  403957:	50                   	push   %rax
  403958:	31 c0                	xor    %eax,%eax
  40395a:	4c 8d 84 24 10 10 00 	lea    0x1010(%rsp),%r8
  403961:	00 
  403962:	48 8d 94 24 10 30 00 	lea    0x3010(%rsp),%rdx
  403969:	00 
  40396a:	e8 61 fc ff ff       	call   4035d0 <dlerror@plt+0x10b0>
  40396f:	41 89 c4             	mov    %eax,%r12d
  403972:	58                   	pop    %rax
  403973:	5a                   	pop    %rdx
  403974:	e9 6e fe ff ff       	jmp    4037e7 <dlerror@plt+0x12c7>
  403979:	48 8d 5d 08          	lea    0x8(%rbp),%rbx
  40397d:	0f 1f 00             	nopl   (%rax)
  403980:	31 c0                	xor    %eax,%eax
  403982:	e8 e9 f6 ff ff       	call   403070 <dlerror@plt+0xb50>
  403987:	49 89 c5             	mov    %rax,%r13
  40398a:	48 85 c0             	test   %rax,%rax
  40398d:	0f 84 21 01 00 00    	je     403ab4 <dlerror@plt+0x1594>
  403993:	49 8d 7d 70          	lea    0x70(%r13),%rdi
  403997:	ba a2 95 40 00       	mov    $0x4095a2,%edx
  40399c:	be 00 10 00 00       	mov    $0x1000,%esi
  4039a1:	31 c0                	xor    %eax,%eax
  4039a3:	48 8d 8c 24 00 50 00 	lea    0x5000(%rsp),%rcx
  4039aa:	00 
  4039ab:	e8 40 e8 ff ff       	call   4021f0 <snprintf@plt>
  4039b0:	48 8b 45 00          	mov    0x0(%rbp),%rax
  4039b4:	ba a2 95 40 00       	mov    $0x4095a2,%edx
  4039b9:	49 8d bd 70 20 00 00 	lea    0x2070(%r13),%rdi
  4039c0:	be 00 10 00 00       	mov    $0x1000,%esi
  4039c5:	48 8d 88 70 20 00 00 	lea    0x2070(%rax),%rcx
  4039cc:	31 c0                	xor    %eax,%eax
  4039ce:	e8 1d e8 ff ff       	call   4021f0 <snprintf@plt>
  4039d3:	3d ff 0f 00 00       	cmp    $0xfff,%eax
  4039d8:	0f 8f c2 00 00 00    	jg     403aa0 <dlerror@plt+0x1580>
  4039de:	48 8b 45 00          	mov    0x0(%rbp),%rax
  4039e2:	ba a2 95 40 00       	mov    $0x4095a2,%edx
  4039e7:	be 00 10 00 00       	mov    $0x1000,%esi
  4039ec:	49 8d bd 70 30 00 00 	lea    0x3070(%r13),%rdi
  4039f3:	48 8d 88 70 30 00 00 	lea    0x3070(%rax),%rcx
  4039fa:	31 c0                	xor    %eax,%eax
  4039fc:	e8 ef e7 ff ff       	call   4021f0 <snprintf@plt>
  403a01:	3d ff 0f 00 00       	cmp    $0xfff,%eax
  403a06:	0f 8f 94 00 00 00    	jg     403aa0 <dlerror@plt+0x1580>
  403a0c:	48 8b 45 00          	mov    0x0(%rbp),%rax
  403a10:	4c 89 ef             	mov    %r13,%rdi
  403a13:	8b 80 74 50 00 00    	mov    0x5074(%rax),%eax
  403a19:	41 89 85 74 50 00 00 	mov    %eax,0x5074(%r13)
  403a20:	e8 1b f4 ff ff       	call   402e40 <dlerror@plt+0x920>
  403a25:	85 c0                	test   %eax,%eax
  403a27:	0f 85 9d 00 00 00    	jne    403aca <dlerror@plt+0x15aa>
  403a2d:	4c 89 2b             	mov    %r13,(%rbx)
  403a30:	e9 54 fe ff ff       	jmp    403889 <dlerror@plt+0x1369>
  403a35:	0f 1f 00             	nopl   (%rax)
  403a38:	48 8d 94 24 00 50 00 	lea    0x5000(%rsp),%rdx
  403a3f:	00 
  403a40:	48 8d b4 24 00 20 00 	lea    0x2000(%rsp),%rsi
  403a47:	00 
  403a48:	bf b0 96 40 00       	mov    $0x4096b0,%edi
  403a4d:	31 c0                	xor    %eax,%eax
  403a4f:	e8 fc f9 ff ff       	call   403450 <dlerror@plt+0xf30>
  403a54:	41 bc ff ff ff ff    	mov    $0xffffffff,%r12d
  403a5a:	e9 7f fe ff ff       	jmp    4038de <dlerror@plt+0x13be>
  403a5f:	90                   	nop
  403a60:	31 c0                	xor    %eax,%eax
  403a62:	49 89 e0             	mov    %rsp,%r8
  403a65:	b9 2f 00 00 00       	mov    $0x2f,%ecx
  403a6a:	be 9e 95 40 00       	mov    $0x40959e,%esi
  403a6f:	48 8d 94 24 00 30 00 	lea    0x3000(%rsp),%rdx
  403a76:	00 
  403a77:	48 8d bc 24 00 50 00 	lea    0x5000(%rsp),%rdi
  403a7e:	00 
  403a7f:	e8 4c fb ff ff       	call   4035d0 <dlerror@plt+0x10b0>
  403a84:	85 c0                	test   %eax,%eax
  403a86:	0f 84 b8 fd ff ff    	je     403844 <dlerror@plt+0x1324>
  403a8c:	48 89 e6             	mov    %rsp,%rsi
  403a8f:	bf 28 96 40 00       	mov    $0x409628,%edi
  403a94:	31 c0                	xor    %eax,%eax
  403a96:	e8 b5 f9 ff ff       	call   403450 <dlerror@plt+0xf30>
  403a9b:	eb b7                	jmp    403a54 <dlerror@plt+0x1534>
  403a9d:	0f 1f 00             	nopl   (%rax)
  403aa0:	bf 58 96 40 00       	mov    $0x409658,%edi
  403aa5:	31 c0                	xor    %eax,%eax
  403aa7:	e8 a4 f9 ff ff       	call   403450 <dlerror@plt+0xf30>
  403aac:	4c 89 ef             	mov    %r13,%rdi
  403aaf:	e8 fc f5 ff ff       	call   4030b0 <dlerror@plt+0xb90>
  403ab4:	48 8d b4 24 00 50 00 	lea    0x5000(%rsp),%rsi
  403abb:	00 
  403abc:	bf 78 96 40 00       	mov    $0x409678,%edi
  403ac1:	31 c0                	xor    %eax,%eax
  403ac3:	e8 88 f9 ff ff       	call   403450 <dlerror@plt+0xf30>
  403ac8:	eb 8a                	jmp    403a54 <dlerror@plt+0x1534>
  403aca:	48 8d b4 24 00 50 00 	lea    0x5000(%rsp),%rsi
  403ad1:	00 
  403ad2:	bf bb 95 40 00       	mov    $0x4095bb,%edi
  403ad7:	31 c0                	xor    %eax,%eax
  403ad9:	e8 72 f9 ff ff       	call   403450 <dlerror@plt+0xf30>
  403ade:	4c 89 ef             	mov    %r13,%rdi
  403ae1:	e8 ca f5 ff ff       	call   4030b0 <dlerror@plt+0xb90>
  403ae6:	eb cc                	jmp    403ab4 <dlerror@plt+0x1594>
  403ae8:	0f 1f 84 00 00 00 00 	nopl   0x0(%rax,%rax,1)
  403aef:	00 
  403af0:	41 56                	push   %r14
  403af2:	b9 13 00 00 00       	mov    $0x13,%ecx
  403af7:	31 c0                	xor    %eax,%eax
  403af9:	41 55                	push   %r13
  403afb:	41 54                	push   %r12
  403afd:	55                   	push   %rbp
  403afe:	53                   	push   %rbx
  403aff:	48 89 fb             	mov    %rdi,%rbx
  403b02:	48 81 ec a0 00 00 00 	sub    $0xa0,%rsp
  403b09:	48 8b 6f 08          	mov    0x8(%rdi),%rbp
  403b0d:	48 8d 54 24 08       	lea    0x8(%rsp),%rdx
  403b12:	48 89 1c 24          	mov    %rbx,(%rsp)
  403b16:	48 89 d7             	mov    %rdx,%rdi
  403b19:	f3 48 ab             	rep stos %rax,%es:(%rdi)
  403b1c:	48 3b 6b 10          	cmp    0x10(%rbx),%rbp
  403b20:	0f 83 c7 00 00 00    	jae    403bed <dlerror@plt+0x16cd>
  403b26:	49 89 f4             	mov    %rsi,%r12
  403b29:	41 bd 01 01 10 40    	mov    $0x40100101,%r13d
  403b2f:	90                   	nop
  403b30:	0f b6 55 11          	movzbl 0x11(%rbp),%edx
  403b34:	8d 42 a6             	lea    -0x5a(%rdx),%eax
  403b37:	3c 1e                	cmp    $0x1e,%al
  403b39:	77 29                	ja     403b64 <dlerror@plt+0x1644>
  403b3b:	49 0f a3 c5          	bt     %rax,%r13
  403b3f:	73 77                	jae    403bb8 <dlerror@plt+0x1698>
  403b41:	4d 85 e4             	test   %r12,%r12
  403b44:	74 0b                	je     403b51 <dlerror@plt+0x1631>
  403b46:	48 89 ee             	mov    %rbp,%rsi
  403b49:	4c 89 e7             	mov    %r12,%rdi
  403b4c:	e8 7f 37 00 00       	call   4072d0 <dlerror@plt+0x4db0>
  403b51:	48 89 ee             	mov    %rbp,%rsi
  403b54:	48 89 df             	mov    %rbx,%rdi
  403b57:	e8 54 f0 ff ff       	call   402bb0 <dlerror@plt+0x690>
  403b5c:	85 c0                	test   %eax,%eax
  403b5e:	0f 85 7c 00 00 00    	jne    403be0 <dlerror@plt+0x16c0>
  403b64:	48 89 ee             	mov    %rbp,%rsi
  403b67:	48 89 df             	mov    %rbx,%rdi
  403b6a:	e8 31 ee ff ff       	call   4029a0 <dlerror@plt+0x480>
  403b6f:	48 89 c5             	mov    %rax,%rbp
  403b72:	48 39 43 10          	cmp    %rax,0x10(%rbx)
  403b76:	77 b8                	ja     403b30 <dlerror@plt+0x1610>
  403b78:	48 8b 7c 24 08       	mov    0x8(%rsp),%rdi
  403b7d:	45 31 f6             	xor    %r14d,%r14d
  403b80:	48 8d 5c 24 10       	lea    0x10(%rsp),%rbx
  403b85:	48 85 ff             	test   %rdi,%rdi
  403b88:	74 17                	je     403ba1 <dlerror@plt+0x1681>
  403b8a:	66 0f 1f 44 00 00    	nopw   0x0(%rax,%rax,1)
  403b90:	e8 1b f5 ff ff       	call   4030b0 <dlerror@plt+0xb90>
  403b95:	48 8b 3b             	mov    (%rbx),%rdi
  403b98:	48 83 c3 08          	add    $0x8,%rbx
  403b9c:	48 85 ff             	test   %rdi,%rdi
  403b9f:	75 ef                	jne    403b90 <dlerror@plt+0x1670>
  403ba1:	48 81 c4 a0 00 00 00 	add    $0xa0,%rsp
  403ba8:	44 89 f0             	mov    %r14d,%eax
  403bab:	5b                   	pop    %rbx
  403bac:	5d                   	pop    %rbp
  403bad:	41 5c                	pop    %r12
  403baf:	41 5d                	pop    %r13
  403bb1:	41 5e                	pop    %r14
  403bb3:	c3                   	ret    
  403bb4:	0f 1f 40 00          	nopl   0x0(%rax)
  403bb8:	80 fa 64             	cmp    $0x64,%dl
  403bbb:	75 a7                	jne    403b64 <dlerror@plt+0x1644>
  403bbd:	48 8d 75 12          	lea    0x12(%rbp),%rsi
  403bc1:	48 89 e7             	mov    %rsp,%rdi
  403bc4:	e8 67 fb ff ff       	call   403730 <dlerror@plt+0x1210>
  403bc9:	41 89 c6             	mov    %eax,%r14d
  403bcc:	83 f8 ff             	cmp    $0xffffffff,%eax
  403bcf:	75 93                	jne    403b64 <dlerror@plt+0x1644>
  403bd1:	48 8b 7c 24 08       	mov    0x8(%rsp),%rdi
  403bd6:	eb a8                	jmp    403b80 <dlerror@plt+0x1660>
  403bd8:	0f 1f 84 00 00 00 00 	nopl   0x0(%rax,%rax,1)
  403bdf:	00 
  403be0:	48 8b 7c 24 08       	mov    0x8(%rsp),%rdi
  403be5:	41 be ff ff ff ff    	mov    $0xffffffff,%r14d
  403beb:	eb 93                	jmp    403b80 <dlerror@plt+0x1660>
  403bed:	45 31 f6             	xor    %r14d,%r14d
  403bf0:	eb af                	jmp    403ba1 <dlerror@plt+0x1681>
  403bf2:	66 66 2e 0f 1f 84 00 	data16 cs nopw 0x0(%rax,%rax,1)
  403bf9:	00 00 00 00 
  403bfd:	0f 1f 00             	nopl   (%rax)
  403c00:	41 57                	push   %r15
  403c02:	41 56                	push   %r14
  403c04:	41 55                	push   %r13
  403c06:	41 54                	push   %r12
  403c08:	55                   	push   %rbp
  403c09:	53                   	push   %rbx
  403c0a:	48 89 fb             	mov    %rdi,%rbx
  403c0d:	48 81 ec 18 10 00 00 	sub    $0x1018,%rsp
  403c14:	4c 8b 7f 08          	mov    0x8(%rdi),%r15
  403c18:	bf d7 95 40 00       	mov    $0x4095d7,%edi
  403c1d:	ff 15 4d a7 00 00    	call   *0xa74d(%rip)        # 40e370 <stderr@GLIBC_2.2.5+0xc8>
  403c23:	48 85 c0             	test   %rax,%rax
  403c26:	0f 84 7b 01 00 00    	je     403da7 <dlerror@plt+0x1887>
  403c2c:	49 89 c4             	mov    %rax,%r12
  403c2f:	48 89 c7             	mov    %rax,%rdi
  403c32:	ff 15 08 a7 00 00    	call   *0xa708(%rip)        # 40e340 <stderr@GLIBC_2.2.5+0x98>
  403c38:	49 89 c5             	mov    %rax,%r13
  403c3b:	48 85 c0             	test   %rax,%rax
  403c3e:	0f 84 76 01 00 00    	je     403dba <dlerror@plt+0x189a>
  403c44:	48 8d 83 70 40 00 00 	lea    0x4070(%rbx),%rax
  403c4b:	48 89 44 24 08       	mov    %rax,0x8(%rsp)
  403c50:	4c 3b 7b 10          	cmp    0x10(%rbx),%r15
  403c54:	72 22                	jb     403c78 <dlerror@plt+0x1758>
  403c56:	e9 ed 00 00 00       	jmp    403d48 <dlerror@plt+0x1828>
  403c5b:	0f 1f 44 00 00       	nopl   0x0(%rax,%rax,1)
  403c60:	4c 89 fe             	mov    %r15,%rsi
  403c63:	48 89 df             	mov    %rbx,%rdi
  403c66:	e8 35 ed ff ff       	call   4029a0 <dlerror@plt+0x480>
  403c6b:	49 89 c7             	mov    %rax,%r15
  403c6e:	48 39 43 10          	cmp    %rax,0x10(%rbx)
  403c72:	0f 86 d0 00 00 00    	jbe    403d48 <dlerror@plt+0x1828>
  403c78:	41 80 7f 11 73       	cmpb   $0x73,0x11(%r15)
  403c7d:	75 e1                	jne    403c60 <dlerror@plt+0x1740>
  403c7f:	4c 89 fe             	mov    %r15,%rsi
  403c82:	48 89 df             	mov    %rbx,%rdi
  403c85:	4d 8d 77 12          	lea    0x12(%r15),%r14
  403c89:	e8 22 ed ff ff       	call   4029b0 <dlerror@plt+0x490>
  403c8e:	41 56                	push   %r14
  403c90:	b9 00 10 00 00       	mov    $0x1000,%ecx
  403c95:	ba 01 00 00 00       	mov    $0x1,%edx
  403c9a:	6a 2f                	push   $0x2f
  403c9c:	4c 8b 4c 24 18       	mov    0x18(%rsp),%r9
  403ca1:	48 89 c5             	mov    %rax,%rbp
  403ca4:	41 b8 e0 95 40 00    	mov    $0x4095e0,%r8d
  403caa:	be 00 10 00 00       	mov    $0x1000,%esi
  403caf:	31 c0                	xor    %eax,%eax
  403cb1:	48 8d 7c 24 20       	lea    0x20(%rsp),%rdi
  403cb6:	e8 95 e3 ff ff       	call   402050 <__snprintf_chk@plt>
  403cbb:	5a                   	pop    %rdx
  403cbc:	59                   	pop    %rcx
  403cbd:	3d ff 0f 00 00       	cmp    $0xfff,%eax
  403cc2:	0f 8f 94 00 00 00    	jg     403d5c <dlerror@plt+0x183c>
  403cc8:	48 8d 7c 24 10       	lea    0x10(%rsp),%rdi
  403ccd:	ff 15 f5 a5 00 00    	call   *0xa5f5(%rip)        # 40e2c8 <stderr@GLIBC_2.2.5+0x20>
  403cd3:	be ea 95 40 00       	mov    $0x4095ea,%esi
  403cd8:	4c 89 e7             	mov    %r12,%rdi
  403cdb:	48 89 c2             	mov    %rax,%rdx
  403cde:	48 89 04 24          	mov    %rax,(%rsp)
  403ce2:	ff 15 38 a6 00 00    	call   *0xa638(%rip)        # 40e320 <stderr@GLIBC_2.2.5+0x78>
  403ce8:	4c 8b 04 24          	mov    (%rsp),%r8
  403cec:	4c 89 c7             	mov    %r8,%rdi
  403cef:	ff 15 1b a7 00 00    	call   *0xa71b(%rip)        # 40e410 <stderr@GLIBC_2.2.5+0x168>
  403cf5:	41 8b 77 0c          	mov    0xc(%r15),%esi
  403cf9:	48 89 ef             	mov    %rbp,%rdi
  403cfc:	ff 15 4e a6 00 00    	call   *0xa64e(%rip)        # 40e350 <stderr@GLIBC_2.2.5+0xa8>
  403d02:	48 85 c0             	test   %rax,%rax
  403d05:	74 68                	je     403d6f <dlerror@plt+0x184f>
  403d07:	48 89 c2             	mov    %rax,%rdx
  403d0a:	be f3 95 40 00       	mov    $0x4095f3,%esi
  403d0f:	4c 89 e7             	mov    %r12,%rdi
  403d12:	48 89 04 24          	mov    %rax,(%rsp)
  403d16:	ff 15 04 a6 00 00    	call   *0xa604(%rip)        # 40e320 <stderr@GLIBC_2.2.5+0x78>
  403d1c:	4c 8b 04 24          	mov    (%rsp),%r8
  403d20:	4c 89 ea             	mov    %r13,%rdx
  403d23:	4c 89 ee             	mov    %r13,%rsi
  403d26:	4c 89 c7             	mov    %r8,%rdi
  403d29:	ff 15 49 a6 00 00    	call   *0xa649(%rip)        # 40e378 <stderr@GLIBC_2.2.5+0xd0>
  403d2f:	48 85 c0             	test   %rax,%rax
  403d32:	74 57                	je     403d8b <dlerror@plt+0x186b>
  403d34:	48 89 ef             	mov    %rbp,%rdi
  403d37:	e8 34 e3 ff ff       	call   402070 <free@plt>
  403d3c:	e9 1f ff ff ff       	jmp    403c60 <dlerror@plt+0x1740>
  403d41:	0f 1f 80 00 00 00 00 	nopl   0x0(%rax)
  403d48:	31 c0                	xor    %eax,%eax
  403d4a:	48 81 c4 18 10 00 00 	add    $0x1018,%rsp
  403d51:	5b                   	pop    %rbx
  403d52:	5d                   	pop    %rbp
  403d53:	41 5c                	pop    %r12
  403d55:	41 5d                	pop    %r13
  403d57:	41 5e                	pop    %r14
  403d59:	41 5f                	pop    %r15
  403d5b:	c3                   	ret    
  403d5c:	31 c0                	xor    %eax,%eax
  403d5e:	bf 38 97 40 00       	mov    $0x409738,%edi
  403d63:	e8 e8 f6 ff ff       	call   403450 <dlerror@plt+0xf30>
  403d68:	b8 ff ff ff ff       	mov    $0xffffffff,%eax
  403d6d:	eb db                	jmp    403d4a <dlerror@plt+0x182a>
  403d6f:	31 c0                	xor    %eax,%eax
  403d71:	4c 89 f6             	mov    %r14,%rsi
  403d74:	bf 68 97 40 00       	mov    $0x409768,%edi
  403d79:	e8 d2 f6 ff ff       	call   403450 <dlerror@plt+0xf30>
  403d7e:	ff 15 04 a6 00 00    	call   *0xa604(%rip)        # 40e388 <stderr@GLIBC_2.2.5+0xe0>
  403d84:	b8 ff ff ff ff       	mov    $0xffffffff,%eax
  403d89:	eb bf                	jmp    403d4a <dlerror@plt+0x182a>
  403d8b:	ff 15 f7 a5 00 00    	call   *0xa5f7(%rip)        # 40e388 <stderr@GLIBC_2.2.5+0xe0>
  403d91:	31 c0                	xor    %eax,%eax
  403d93:	4c 89 f6             	mov    %r14,%rsi
  403d96:	bf 90 97 40 00       	mov    $0x409790,%edi
  403d9b:	e8 b0 f6 ff ff       	call   403450 <dlerror@plt+0xf30>
  403da0:	b8 01 00 00 00       	mov    $0x1,%eax
  403da5:	eb a3                	jmp    403d4a <dlerror@plt+0x182a>
  403da7:	31 c0                	xor    %eax,%eax
  403da9:	bf f0 96 40 00       	mov    $0x4096f0,%edi
  403dae:	e8 9d f6 ff ff       	call   403450 <dlerror@plt+0xf30>
  403db3:	b8 ff ff ff ff       	mov    $0xffffffff,%eax
  403db8:	eb 90                	jmp    403d4a <dlerror@plt+0x182a>
  403dba:	31 c0                	xor    %eax,%eax
  403dbc:	bf 10 97 40 00       	mov    $0x409710,%edi
  403dc1:	e8 8a f6 ff ff       	call   403450 <dlerror@plt+0xf30>
  403dc6:	b8 ff ff ff ff       	mov    $0xffffffff,%eax
  403dcb:	e9 7a ff ff ff       	jmp    403d4a <dlerror@plt+0x182a>
  403dd0:	c3                   	ret    
  403dd1:	66 66 2e 0f 1f 84 00 	data16 cs nopw 0x0(%rax,%rax,1)
  403dd8:	00 00 00 00 
  403ddc:	0f 1f 40 00          	nopl   0x0(%rax)
  403de0:	55                   	push   %rbp
  403de1:	48 89 fd             	mov    %rdi,%rbp
  403de4:	e8 37 23 00 00       	call   406120 <dlerror@plt+0x3c00>
  403de9:	85 c0                	test   %eax,%eax
  403deb:	75 3b                	jne    403e28 <dlerror@plt+0x1908>
  403ded:	c7 85 78 50 00 00 01 	movl   $0x1,0x5078(%rbp)
  403df4:	00 00 00 
  403df7:	48 89 ef             	mov    %rbp,%rdi
  403dfa:	e8 f1 23 00 00       	call   4061f0 <dlerror@plt+0x3cd0>
  403dff:	85 c0                	test   %eax,%eax
  403e01:	75 25                	jne    403e28 <dlerror@plt+0x1908>
  403e03:	48 89 ef             	mov    %rbp,%rdi
  403e06:	e8 f5 25 00 00       	call   406400 <dlerror@plt+0x3ee0>
  403e0b:	85 c0                	test   %eax,%eax
  403e0d:	75 19                	jne    403e28 <dlerror@plt+0x1908>
  403e0f:	48 89 ef             	mov    %rbp,%rdi
  403e12:	e8 b9 27 00 00       	call   4065d0 <dlerror@plt+0x40b0>
  403e17:	85 c0                	test   %eax,%eax
  403e19:	75 0d                	jne    403e28 <dlerror@plt+0x1908>
  403e1b:	48 89 ef             	mov    %rbp,%rdi
  403e1e:	5d                   	pop    %rbp
  403e1f:	e9 dc fd ff ff       	jmp    403c00 <dlerror@plt+0x16e0>
  403e24:	0f 1f 40 00          	nopl   0x0(%rax)
  403e28:	b8 ff ff ff ff       	mov    $0xffffffff,%eax
  403e2d:	5d                   	pop    %rbp
  403e2e:	c3                   	ret    
  403e2f:	90                   	nop
  403e30:	e9 fb 27 00 00       	jmp    406630 <dlerror@plt+0x4110>
  403e35:	66 66 2e 0f 1f 84 00 	data16 cs nopw 0x0(%rax,%rax,1)
  403e3c:	00 00 00 00 
  403e40:	c3                   	ret    
  403e41:	66 2e 0f 1f 84 00 00 	cs nopw 0x0(%rax,%rax,1)
  403e48:	00 00 00 
  403e4b:	0f 1f 44 00 00       	nopl   0x0(%rax,%rax,1)
  403e50:	41 57                	push   %r15
  403e52:	31 c0                	xor    %eax,%eax
  403e54:	41 89 ff             	mov    %edi,%r15d
  403e57:	41 56                	push   %r14
  403e59:	41 55                	push   %r13
  403e5b:	49 89 f5             	mov    %rsi,%r13
  403e5e:	41 54                	push   %r12
  403e60:	55                   	push   %rbp
  403e61:	53                   	push   %rbx
  403e62:	48 81 ec 28 20 00 00 	sub    $0x2028,%rsp
  403e69:	48 c7 44 24 08 00 00 	movq   $0x0,0x8(%rsp)
  403e70:	00 00 
  403e72:	e8 f9 f1 ff ff       	call   403070 <dlerror@plt+0xb50>
  403e77:	48 85 c0             	test   %rax,%rax
  403e7a:	0f 84 50 04 00 00    	je     4042d0 <dlerror@plt+0x1db0>
  403e80:	49 8b 75 00          	mov    0x0(%r13),%rsi
  403e84:	48 8d 7c 24 20       	lea    0x20(%rsp),%rdi
  403e89:	48 89 c5             	mov    %rax,%rbp
  403e8c:	e8 4f 07 00 00       	call   4045e0 <dlerror@plt+0x20c0>
  403e91:	85 c0                	test   %eax,%eax
  403e93:	0f 84 37 04 00 00    	je     4042d0 <dlerror@plt+0x1db0>
  403e99:	48 8d 74 24 20       	lea    0x20(%rsp),%rsi
  403e9e:	48 8d bc 24 20 10 00 	lea    0x1020(%rsp),%rdi
  403ea5:	00 
  403ea6:	e8 25 09 00 00       	call   4047d0 <dlerror@plt+0x22b0>
  403eab:	85 c0                	test   %eax,%eax
  403ead:	0f 84 1d 04 00 00    	je     4042d0 <dlerror@plt+0x1db0>
  403eb3:	bf cb 97 40 00       	mov    $0x4097cb,%edi
  403eb8:	31 db                	xor    %ebx,%ebx
  403eba:	e8 21 3b 00 00       	call   4079e0 <dlerror@plt+0x54c0>
  403ebf:	49 89 c4             	mov    %rax,%r12
  403ec2:	48 85 c0             	test   %rax,%rax
  403ec5:	74 34                	je     403efb <dlerror@plt+0x19db>
  403ec7:	bf d5 97 40 00       	mov    $0x4097d5,%edi
  403ecc:	bb 01 00 00 00       	mov    $0x1,%ebx
  403ed1:	e8 0a 3b 00 00       	call   4079e0 <dlerror@plt+0x54c0>
  403ed6:	48 89 c7             	mov    %rax,%rdi
  403ed9:	48 85 c0             	test   %rax,%rax
  403edc:	74 1d                	je     403efb <dlerror@plt+0x19db>
  403ede:	80 38 31             	cmpb   $0x31,(%rax)
  403ee1:	75 09                	jne    403eec <dlerror@plt+0x19cc>
  403ee3:	31 db                	xor    %ebx,%ebx
  403ee5:	80 78 01 00          	cmpb   $0x0,0x1(%rax)
  403ee9:	0f 95 c3             	setne  %bl
  403eec:	e8 7f e1 ff ff       	call   402070 <free@plt>
  403ef1:	bf d5 97 40 00       	mov    $0x4097d5,%edi
  403ef6:	e8 25 3b 00 00       	call   407a20 <dlerror@plt+0x5500>
  403efb:	bf cb 97 40 00       	mov    $0x4097cb,%edi
  403f00:	e8 1b 3b 00 00       	call   407a20 <dlerror@plt+0x5500>
  403f05:	48 8d 54 24 20       	lea    0x20(%rsp),%rdx
  403f0a:	48 89 ef             	mov    %rbp,%rdi
  403f0d:	48 89 d6             	mov    %rdx,%rsi
  403f10:	e8 4b f2 ff ff       	call   403160 <dlerror@plt+0xc40>
  403f15:	85 c0                	test   %eax,%eax
  403f17:	0f 84 23 01 00 00    	je     404040 <dlerror@plt+0x1b20>
  403f1d:	bf e6 97 40 00       	mov    $0x4097e6,%edi
  403f22:	e8 b9 3a 00 00       	call   4079e0 <dlerror@plt+0x54c0>
  403f27:	49 89 c6             	mov    %rax,%r14
  403f2a:	48 85 c0             	test   %rax,%rax
  403f2d:	74 23                	je     403f52 <dlerror@plt+0x1a32>
  403f2f:	31 c9                	xor    %ecx,%ecx
  403f31:	31 d2                	xor    %edx,%edx
  403f33:	48 89 c6             	mov    %rax,%rsi
  403f36:	bf 0f 00 00 00       	mov    $0xf,%edi
  403f3b:	31 c0                	xor    %eax,%eax
  403f3d:	e8 be e3 ff ff       	call   402300 <prctl@plt>
  403f42:	85 c0                	test   %eax,%eax
  403f44:	0f 85 d2 03 00 00    	jne    40431c <dlerror@plt+0x1dfc>
  403f4a:	4c 89 f7             	mov    %r14,%rdi
  403f4d:	e8 1e e1 ff ff       	call   402070 <free@plt>
  403f52:	bf e6 97 40 00       	mov    $0x4097e6,%edi
  403f57:	e8 c4 3a 00 00       	call   407a20 <dlerror@plt+0x5500>
  403f5c:	44 89 bd 7c 50 00 00 	mov    %r15d,0x507c(%rbp)
  403f63:	4c 89 ad 80 50 00 00 	mov    %r13,0x5080(%rbp)
  403f6a:	85 db                	test   %ebx,%ebx
  403f6c:	0f 84 6e 01 00 00    	je     4040e0 <dlerror@plt+0x1bc0>
  403f72:	4d 85 e4             	test   %r12,%r12
  403f75:	0f 84 95 02 00 00    	je     404210 <dlerror@plt+0x1cf0>
  403f7b:	31 c0                	xor    %eax,%eax
  403f7d:	e8 ee 2d 00 00       	call   406d70 <dlerror@plt+0x4850>
  403f82:	48 89 44 24 08       	mov    %rax,0x8(%rsp)
  403f87:	48 8d 7c 24 08       	lea    0x8(%rsp),%rdi
  403f8c:	e8 1f 2e 00 00       	call   406db0 <dlerror@plt+0x4890>
  403f91:	4d 85 e4             	test   %r12,%r12
  403f94:	0f 84 c6 01 00 00    	je     404160 <dlerror@plt+0x1c40>
  403f9a:	48 8d bd 70 20 00 00 	lea    0x2070(%rbp),%rdi
  403fa1:	4c 89 e6             	mov    %r12,%rsi
  403fa4:	e8 d7 e2 ff ff       	call   402280 <strcmp@plt>
  403fa9:	85 c0                	test   %eax,%eax
  403fab:	74 47                	je     403ff4 <dlerror@plt+0x1ad4>
  403fad:	31 c0                	xor    %eax,%eax
  403faf:	4c 89 e1             	mov    %r12,%rcx
  403fb2:	ba a2 95 40 00       	mov    $0x4095a2,%edx
  403fb7:	be 00 10 00 00       	mov    $0x1000,%esi
  403fbc:	4c 8d ad 70 30 00 00 	lea    0x3070(%rbp),%r13
  403fc3:	4c 89 ef             	mov    %r13,%rdi
  403fc6:	e8 25 e2 ff ff       	call   4021f0 <snprintf@plt>
  403fcb:	3d ff 0f 00 00       	cmp    $0xfff,%eax
  403fd0:	0f 8f fa 02 00 00    	jg     4042d0 <dlerror@plt+0x1db0>
  403fd6:	48 8d bd 70 40 00 00 	lea    0x4070(%rbp),%rdi
  403fdd:	ba 00 10 00 00       	mov    $0x1000,%edx
  403fe2:	4c 89 ee             	mov    %r13,%rsi
  403fe5:	c7 85 74 50 00 00 01 	movl   $0x1,0x5074(%rbp)
  403fec:	00 00 00 
  403fef:	e8 fc e3 ff ff       	call   4023f0 <__strcpy_chk@plt>
  403ff4:	48 89 ef             	mov    %rbp,%rdi
  403ff7:	e8 d4 fd ff ff       	call   403dd0 <dlerror@plt+0x18b0>
  403ffc:	48 89 ef             	mov    %rbp,%rdi
  403fff:	e8 dc fd ff ff       	call   403de0 <dlerror@plt+0x18c0>
  404004:	48 89 ef             	mov    %rbp,%rdi
  404007:	41 89 c4             	mov    %eax,%r12d
  40400a:	e8 21 fe ff ff       	call   403e30 <dlerror@plt+0x1910>
  40400f:	48 8b 7c 24 08       	mov    0x8(%rsp),%rdi
  404014:	e8 d7 2e 00 00       	call   406ef0 <dlerror@plt+0x49d0>
  404019:	48 8d 7c 24 08       	lea    0x8(%rsp),%rdi
  40401e:	e8 8d 2d 00 00       	call   406db0 <dlerror@plt+0x4890>
  404023:	48 81 c4 28 20 00 00 	add    $0x2028,%rsp
  40402a:	44 89 e0             	mov    %r12d,%eax
  40402d:	5b                   	pop    %rbx
  40402e:	5d                   	pop    %rbp
  40402f:	41 5c                	pop    %r12
  404031:	41 5d                	pop    %r13
  404033:	41 5e                	pop    %r14
  404035:	41 5f                	pop    %r15
  404037:	c3                   	ret    
  404038:	0f 1f 84 00 00 00 00 	nopl   0x0(%rax,%rax,1)
  40403f:	00 
  404040:	48 8d 54 24 20       	lea    0x20(%rsp),%rdx
  404045:	48 8d b4 24 20 10 00 	lea    0x1020(%rsp),%rsi
  40404c:	00 
  40404d:	48 89 ef             	mov    %rbp,%rdi
  404050:	e8 0b f1 ff ff       	call   403160 <dlerror@plt+0xc40>
  404055:	85 c0                	test   %eax,%eax
  404057:	0f 84 5b 02 00 00    	je     4042b8 <dlerror@plt+0x1d98>
  40405d:	4d 85 e4             	test   %r12,%r12
  404060:	0f 85 b7 fe ff ff    	jne    403f1d <dlerror@plt+0x19fd>
  404066:	be 1d 90 40 00       	mov    $0x40901d,%esi
  40406b:	48 8d 7c 24 20       	lea    0x20(%rsp),%rdi
  404070:	e8 eb e3 ff ff       	call   402460 <fopen@plt>
  404075:	ba ff ff ff ff       	mov    $0xffffffff,%edx
  40407a:	49 89 c6             	mov    %rax,%r14
  40407d:	48 85 c0             	test   %rax,%rax
  404080:	74 3f                	je     4040c1 <dlerror@plt+0x1ba1>
  404082:	48 8b 05 77 71 00 00 	mov    0x7177(%rip),%rax        # 40b200 <dlerror@plt+0x8ce0>
  404089:	ba 08 00 00 00       	mov    $0x8,%edx
  40408e:	48 8d 74 24 10       	lea    0x10(%rsp),%rsi
  404093:	4c 89 f7             	mov    %r14,%rdi
  404096:	48 89 44 24 10       	mov    %rax,0x10(%rsp)
  40409b:	48 c1 e8 18          	shr    $0x18,%rax
  40409f:	83 c0 0d             	add    $0xd,%eax
  4040a2:	88 44 24 13          	mov    %al,0x13(%rsp)
  4040a6:	e8 e5 44 00 00       	call   408590 <dlerror@plt+0x6070>
  4040ab:	48 85 c0             	test   %rax,%rax
  4040ae:	0f 85 69 fe ff ff    	jne    403f1d <dlerror@plt+0x19fd>
  4040b4:	4c 89 f7             	mov    %r14,%rdi
  4040b7:	e8 b4 e0 ff ff       	call   402170 <fclose@plt>
  4040bc:	ba 01 00 00 00       	mov    $0x1,%edx
  4040c1:	48 8d b4 24 20 10 00 	lea    0x1020(%rsp),%rsi
  4040c8:	00 
  4040c9:	bf 48 98 40 00       	mov    $0x409848,%edi
  4040ce:	31 c0                	xor    %eax,%eax
  4040d0:	41 83 cc ff          	or     $0xffffffff,%r12d
  4040d4:	e8 77 f3 ff ff       	call   403450 <dlerror@plt+0xf30>
  4040d9:	e9 45 ff ff ff       	jmp    404023 <dlerror@plt+0x1b03>
  4040de:	66 90                	xchg   %ax,%ax
  4040e0:	8b 8d 70 50 00 00    	mov    0x5070(%rbp),%ecx
  4040e6:	85 c9                	test   %ecx,%ecx
  4040e8:	0f 85 9a 01 00 00    	jne    404288 <dlerror@plt+0x1d68>
  4040ee:	4d 85 e4             	test   %r12,%r12
  4040f1:	0f 84 29 01 00 00    	je     404220 <dlerror@plt+0x1d00>
  4040f7:	31 c0                	xor    %eax,%eax
  4040f9:	e8 72 2c 00 00       	call   406d70 <dlerror@plt+0x4850>
  4040fe:	48 89 44 24 08       	mov    %rax,0x8(%rsp)
  404103:	48 89 c7             	mov    %rax,%rdi
  404106:	48 89 ee             	mov    %rbp,%rsi
  404109:	e8 a2 27 00 00       	call   4068b0 <dlerror@plt+0x4390>
  40410e:	85 c0                	test   %eax,%eax
  404110:	0f 85 71 fe ff ff    	jne    403f87 <dlerror@plt+0x1a67>
  404116:	48 8b 74 24 08       	mov    0x8(%rsp),%rsi
  40411b:	48 89 ef             	mov    %rbp,%rdi
  40411e:	e8 8d 29 00 00       	call   406ab0 <dlerror@plt+0x4590>
  404123:	85 c0                	test   %eax,%eax
  404125:	75 12                	jne    404139 <dlerror@plt+0x1c19>
  404127:	48 8b 7c 24 08       	mov    0x8(%rsp),%rdi
  40412c:	e8 bf 2b 00 00       	call   406cf0 <dlerror@plt+0x47d0>
  404131:	85 c0                	test   %eax,%eax
  404133:	0f 84 cf 01 00 00    	je     404308 <dlerror@plt+0x1de8>
  404139:	48 8b 7c 24 08       	mov    0x8(%rsp),%rdi
  40413e:	e8 ad 2d 00 00       	call   406ef0 <dlerror@plt+0x49d0>
  404143:	48 8d 7c 24 08       	lea    0x8(%rsp),%rdi
  404148:	e8 63 2c 00 00       	call   406db0 <dlerror@plt+0x4890>
  40414d:	4d 85 e4             	test   %r12,%r12
  404150:	0f 85 44 fe ff ff    	jne    403f9a <dlerror@plt+0x1a7a>
  404156:	66 2e 0f 1f 84 00 00 	cs nopw 0x0(%rax,%rax,1)
  40415d:	00 00 00 
  404160:	48 8b 74 24 08       	mov    0x8(%rsp),%rsi
  404165:	48 89 ef             	mov    %rbp,%rdi
  404168:	e8 83 f9 ff ff       	call   403af0 <dlerror@plt+0x15d0>
  40416d:	85 c0                	test   %eax,%eax
  40416f:	0f 85 5b 01 00 00    	jne    4042d0 <dlerror@plt+0x1db0>
  404175:	4c 8d b5 70 30 00 00 	lea    0x3070(%rbp),%r14
  40417c:	bf cb 97 40 00       	mov    $0x4097cb,%edi
  404181:	4c 89 f6             	mov    %r14,%rsi
  404184:	e8 87 38 00 00       	call   407a10 <dlerror@plt+0x54f0>
  404189:	31 c9                	xor    %ecx,%ecx
  40418b:	31 d2                	xor    %edx,%edx
  40418d:	31 c0                	xor    %eax,%eax
  40418f:	48 8d 74 24 10       	lea    0x10(%rsp),%rsi
  404194:	bf 10 00 00 00       	mov    $0x10,%edi
  404199:	e8 62 e1 ff ff       	call   402300 <prctl@plt>
  40419e:	85 c0                	test   %eax,%eax
  4041a0:	0f 84 3a 01 00 00    	je     4042e0 <dlerror@plt+0x1dc0>
  4041a6:	4c 89 f7             	mov    %r14,%rdi
  4041a9:	e8 82 3e 00 00       	call   408030 <dlerror@plt+0x5b10>
  4041ae:	83 f8 ff             	cmp    $0xffffffff,%eax
  4041b1:	0f 84 19 01 00 00    	je     4042d0 <dlerror@plt+0x1db0>
  4041b7:	31 c0                	xor    %eax,%eax
  4041b9:	e8 82 fc ff ff       	call   403e40 <dlerror@plt+0x1920>
  4041be:	4c 89 e9             	mov    %r13,%rcx
  4041c1:	44 89 fa             	mov    %r15d,%edx
  4041c4:	48 89 ee             	mov    %rbp,%rsi
  4041c7:	48 8d 7c 24 20       	lea    0x20(%rsp),%rdi
  4041cc:	e8 1f 40 00 00       	call   4081f0 <dlerror@plt+0x5cd0>
  4041d1:	48 8b 7c 24 08       	mov    0x8(%rsp),%rdi
  4041d6:	41 89 c4             	mov    %eax,%r12d
  4041d9:	e8 12 2d 00 00       	call   406ef0 <dlerror@plt+0x49d0>
  4041de:	48 8d 7c 24 08       	lea    0x8(%rsp),%rdi
  4041e3:	e8 c8 2b 00 00       	call   406db0 <dlerror@plt+0x4890>
  4041e8:	83 bd 74 50 00 00 01 	cmpl   $0x1,0x5074(%rbp)
  4041ef:	0f 84 03 01 00 00    	je     4042f8 <dlerror@plt+0x1dd8>
  4041f5:	48 89 ef             	mov    %rbp,%rdi
  4041f8:	e8 b3 ee ff ff       	call   4030b0 <dlerror@plt+0xb90>
  4041fd:	31 c0                	xor    %eax,%eax
  4041ff:	e8 cc 3e 00 00       	call   4080d0 <dlerror@plt+0x5bb0>
  404204:	e9 1a fe ff ff       	jmp    404023 <dlerror@plt+0x1b03>
  404209:	0f 1f 80 00 00 00 00 	nopl   0x0(%rax)
  404210:	8b 95 70 50 00 00    	mov    0x5070(%rbp),%edx
  404216:	85 d2                	test   %edx,%edx
  404218:	0f 85 5d fd ff ff    	jne    403f7b <dlerror@plt+0x1a5b>
  40421e:	66 90                	xchg   %ax,%ax
  404220:	4c 8d b5 70 20 00 00 	lea    0x2070(%rbp),%r14
  404227:	bf cb 97 40 00       	mov    $0x4097cb,%edi
  40422c:	4c 89 f6             	mov    %r14,%rsi
  40422f:	e8 dc 37 00 00       	call   407a10 <dlerror@plt+0x54f0>
  404234:	bf d5 97 40 00       	mov    $0x4097d5,%edi
  404239:	be 14 90 40 00       	mov    $0x409014,%esi
  40423e:	e8 cd 37 00 00       	call   407a10 <dlerror@plt+0x54f0>
  404243:	4c 89 f7             	mov    %r14,%rdi
  404246:	e8 e5 3d 00 00       	call   408030 <dlerror@plt+0x5b10>
  40424b:	83 f8 ff             	cmp    $0xffffffff,%eax
  40424e:	0f 84 7c 00 00 00    	je     4042d0 <dlerror@plt+0x1db0>
  404254:	4c 89 ea             	mov    %r13,%rdx
  404257:	44 89 fe             	mov    %r15d,%esi
  40425a:	48 8d 7c 24 20       	lea    0x20(%rsp),%rdi
  40425f:	e8 5c 3f 00 00       	call   4081c0 <dlerror@plt+0x5ca0>
  404264:	83 f8 ff             	cmp    $0xffffffff,%eax
  404267:	74 67                	je     4042d0 <dlerror@plt+0x1db0>
  404269:	31 c0                	xor    %eax,%eax
  40426b:	e8 00 2b 00 00       	call   406d70 <dlerror@plt+0x4850>
  404270:	48 89 44 24 08       	mov    %rax,0x8(%rsp)
  404275:	48 89 c7             	mov    %rax,%rdi
  404278:	85 db                	test   %ebx,%ebx
  40427a:	0f 84 86 fe ff ff    	je     404106 <dlerror@plt+0x1be6>
  404280:	e9 02 fd ff ff       	jmp    403f87 <dlerror@plt+0x1a67>
  404285:	0f 1f 00             	nopl   (%rax)
  404288:	48 89 ef             	mov    %rbp,%rdi
  40428b:	e8 90 f0 ff ff       	call   403320 <dlerror@plt+0xe00>
  404290:	83 f8 ff             	cmp    $0xffffffff,%eax
  404293:	74 3b                	je     4042d0 <dlerror@plt+0x1db0>
  404295:	4d 85 e4             	test   %r12,%r12
  404298:	0f 85 59 fe ff ff    	jne    4040f7 <dlerror@plt+0x1bd7>
  40429e:	8b 85 70 50 00 00    	mov    0x5070(%rbp),%eax
  4042a4:	85 c0                	test   %eax,%eax
  4042a6:	0f 85 4b fe ff ff    	jne    4040f7 <dlerror@plt+0x1bd7>
  4042ac:	e9 6f ff ff ff       	jmp    404220 <dlerror@plt+0x1d00>
  4042b1:	0f 1f 80 00 00 00 00 	nopl   0x0(%rax)
  4042b8:	48 8d 94 24 20 10 00 	lea    0x1020(%rsp),%rdx
  4042bf:	00 
  4042c0:	48 8d 74 24 20       	lea    0x20(%rsp),%rsi
  4042c5:	bf f8 97 40 00       	mov    $0x4097f8,%edi
  4042ca:	e8 81 f1 ff ff       	call   403450 <dlerror@plt+0xf30>
  4042cf:	90                   	nop
  4042d0:	41 bc ff ff ff ff    	mov    $0xffffffff,%r12d
  4042d6:	e9 48 fd ff ff       	jmp    404023 <dlerror@plt+0x1b03>
  4042db:	0f 1f 44 00 00       	nopl   0x0(%rax,%rax,1)
  4042e0:	48 8d 74 24 10       	lea    0x10(%rsp),%rsi
  4042e5:	bf e6 97 40 00       	mov    $0x4097e6,%edi
  4042ea:	e8 21 37 00 00       	call   407a10 <dlerror@plt+0x54f0>
  4042ef:	e9 b2 fe ff ff       	jmp    4041a6 <dlerror@plt+0x1c86>
  4042f4:	0f 1f 40 00          	nopl   0x0(%rax)
  4042f8:	4c 89 f7             	mov    %r14,%rdi
  4042fb:	e8 40 38 00 00       	call   407b40 <dlerror@plt+0x5620>
  404300:	e9 f0 fe ff ff       	jmp    4041f5 <dlerror@plt+0x1cd5>
  404305:	0f 1f 00             	nopl   (%rax)
  404308:	48 8b 7c 24 08       	mov    0x8(%rsp),%rdi
  40430d:	48 8d 74 24 20       	lea    0x20(%rsp),%rsi
  404312:	e8 c9 2c 00 00       	call   406fe0 <dlerror@plt+0x4ac0>
  404317:	e9 75 fc ff ff       	jmp    403f91 <dlerror@plt+0x1a71>
  40431c:	bf 80 98 40 00       	mov    $0x409880,%edi
  404321:	31 c0                	xor    %eax,%eax
  404323:	41 bc ff ff ff ff    	mov    $0xffffffff,%r12d
  404329:	e8 22 f1 ff ff       	call   403450 <dlerror@plt+0xf30>
  40432e:	e9 f0 fc ff ff       	jmp    404023 <dlerror@plt+0x1b03>
  404333:	66 2e 0f 1f 84 00 00 	cs nopw 0x0(%rax,%rax,1)
  40433a:	00 00 00 
  40433d:	0f 1f 00             	nopl   (%rax)
  404340:	55                   	push   %rbp
  404341:	48 89 f1             	mov    %rsi,%rcx
  404344:	48 89 fd             	mov    %rdi,%rbp
  404347:	ba a2 95 40 00       	mov    $0x4095a2,%edx
  40434c:	be 00 10 00 00       	mov    $0x1000,%esi
  404351:	31 c0                	xor    %eax,%eax
  404353:	48 81 ec 00 10 00 00 	sub    $0x1000,%rsp
  40435a:	48 89 e7             	mov    %rsp,%rdi
  40435d:	e8 8e de ff ff       	call   4021f0 <snprintf@plt>
  404362:	41 89 c0             	mov    %eax,%r8d
  404365:	31 c0                	xor    %eax,%eax
  404367:	41 81 f8 ff 0f 00 00 	cmp    $0xfff,%r8d
  40436e:	7f 2a                	jg     40439a <dlerror@plt+0x1e7a>
  404370:	48 89 e7             	mov    %rsp,%rdi
  404373:	e8 88 de ff ff       	call   402200 <dirname@plt>
  404378:	ba a2 95 40 00       	mov    $0x4095a2,%edx
  40437d:	be 00 10 00 00       	mov    $0x1000,%esi
  404382:	48 89 ef             	mov    %rbp,%rdi
  404385:	48 89 c1             	mov    %rax,%rcx
  404388:	31 c0                	xor    %eax,%eax
  40438a:	e8 61 de ff ff       	call   4021f0 <snprintf@plt>
  40438f:	3d ff 0f 00 00       	cmp    $0xfff,%eax
  404394:	0f 9e c0             	setle  %al
  404397:	0f b6 c0             	movzbl %al,%eax
  40439a:	48 81 c4 00 10 00 00 	add    $0x1000,%rsp
  4043a1:	5d                   	pop    %rbp
  4043a2:	c3                   	ret    
  4043a3:	66 66 2e 0f 1f 84 00 	data16 cs nopw 0x0(%rax,%rax,1)
  4043aa:	00 00 00 00 
  4043ae:	66 90                	xchg   %ax,%ax
  4043b0:	55                   	push   %rbp
  4043b1:	48 89 fd             	mov    %rdi,%rbp
  4043b4:	48 89 f7             	mov    %rsi,%rdi
  4043b7:	e8 74 df ff ff       	call   402330 <__xpg_basename@plt>
  4043bc:	48 89 ef             	mov    %rbp,%rdi
  4043bf:	48 89 c6             	mov    %rax,%rsi
  4043c2:	e8 09 dd ff ff       	call   4020d0 <strcpy@plt>
  4043c7:	b8 01 00 00 00       	mov    $0x1,%eax
  4043cc:	5d                   	pop    %rbp
  4043cd:	c3                   	ret    
  4043ce:	66 90                	xchg   %ax,%ax
  4043d0:	41 54                	push   %r12
  4043d2:	48 89 f1             	mov    %rsi,%rcx
  4043d5:	31 c0                	xor    %eax,%eax
  4043d7:	be 00 10 00 00       	mov    $0x1000,%esi
  4043dc:	55                   	push   %rbp
  4043dd:	48 89 d5             	mov    %rdx,%rbp
  4043e0:	ba a2 95 40 00       	mov    $0x4095a2,%edx
  4043e5:	53                   	push   %rbx
  4043e6:	48 89 fb             	mov    %rdi,%rbx
  4043e9:	e8 02 de ff ff       	call   4021f0 <snprintf@plt>
  4043ee:	48 98                	cltq   
  4043f0:	48 3d fe 0f 00 00    	cmp    $0xffe,%rax
  4043f6:	77 68                	ja     404460 <dlerror@plt+0x1f40>
  4043f8:	80 7c 03 ff 2f       	cmpb   $0x2f,-0x1(%rbx,%rax,1)
  4043fd:	74 10                	je     40440f <dlerror@plt+0x1eef>
  4043ff:	48 8d 50 01          	lea    0x1(%rax),%rdx
  404403:	c6 04 03 2f          	movb   $0x2f,(%rbx,%rax,1)
  404407:	48 83 c0 02          	add    $0x2,%rax
  40440b:	c6 04 13 00          	movb   $0x0,(%rbx,%rdx,1)
  40440f:	41 bc 00 10 00 00    	mov    $0x1000,%r12d
  404415:	48 89 ef             	mov    %rbp,%rdi
  404418:	49 29 c4             	sub    %rax,%r12
  40441b:	e8 90 dd ff ff       	call   4021b0 <strlen@plt>
  404420:	49 39 c4             	cmp    %rax,%r12
  404423:	76 3b                	jbe    404460 <dlerror@plt+0x1f40>
  404425:	80 7c 05 ff 2f       	cmpb   $0x2f,-0x1(%rbp,%rax,1)
  40442a:	4c 89 e2             	mov    %r12,%rdx
  40442d:	48 89 ee             	mov    %rbp,%rsi
  404430:	48 89 df             	mov    %rbx,%rdi
  404433:	74 0b                	je     404440 <dlerror@plt+0x1f20>
  404435:	e8 d6 dd ff ff       	call   402210 <strncat@plt>
  40443a:	5b                   	pop    %rbx
  40443b:	5d                   	pop    %rbp
  40443c:	41 5c                	pop    %r12
  40443e:	c3                   	ret    
  40443f:	90                   	nop
  404440:	e8 cb dd ff ff       	call   402210 <strncat@plt>
  404445:	48 89 df             	mov    %rbx,%rdi
  404448:	e8 63 dd ff ff       	call   4021b0 <strlen@plt>
  40444d:	c6 44 03 ff 00       	movb   $0x0,-0x1(%rbx,%rax,1)
  404452:	48 89 d8             	mov    %rbx,%rax
  404455:	5b                   	pop    %rbx
  404456:	5d                   	pop    %rbp
  404457:	41 5c                	pop    %r12
  404459:	c3                   	ret    
  40445a:	66 0f 1f 44 00 00    	nopw   0x0(%rax,%rax,1)
  404460:	5b                   	pop    %rbx
  404461:	31 c0                	xor    %eax,%eax
  404463:	5d                   	pop    %rbp
  404464:	41 5c                	pop    %r12
  404466:	c3                   	ret    
  404467:	66 0f 1f 84 00 00 00 	nopw   0x0(%rax,%rax,1)
  40446e:	00 00 
  404470:	41 54                	push   %r12
  404472:	49 89 fc             	mov    %rdi,%r12
  404475:	48 89 f7             	mov    %rsi,%rdi
  404478:	55                   	push   %rbp
  404479:	48 89 f5             	mov    %rsi,%rbp
  40447c:	48 81 ec 08 30 00 00 	sub    $0x3008,%rsp
  404483:	e8 a8 de ff ff       	call   402330 <__xpg_basename@plt>
  404488:	ba 00 10 00 00       	mov    $0x1000,%edx
  40448d:	48 8d bc 24 00 20 00 	lea    0x2000(%rsp),%rdi
  404494:	00 
  404495:	48 89 c6             	mov    %rax,%rsi
  404498:	e8 53 df ff ff       	call   4023f0 <__strcpy_chk@plt>
  40449d:	48 89 ee             	mov    %rbp,%rsi
  4044a0:	48 89 e7             	mov    %rsp,%rdi
  4044a3:	e8 98 fe ff ff       	call   404340 <dlerror@plt+0x1e20>
  4044a8:	ba 00 10 00 00       	mov    $0x1000,%edx
  4044ad:	48 8d b4 24 00 10 00 	lea    0x1000(%rsp),%rsi
  4044b4:	00 
  4044b5:	48 89 e7             	mov    %rsp,%rdi
  4044b8:	e8 63 dd ff ff       	call   402220 <__realpath_chk@plt>
  4044bd:	49 89 c0             	mov    %rax,%r8
  4044c0:	31 c0                	xor    %eax,%eax
  4044c2:	4d 85 c0             	test   %r8,%r8
  4044c5:	74 21                	je     4044e8 <dlerror@plt+0x1fc8>
  4044c7:	48 8d 94 24 00 20 00 	lea    0x2000(%rsp),%rdx
  4044ce:	00 
  4044cf:	48 8d b4 24 00 10 00 	lea    0x1000(%rsp),%rsi
  4044d6:	00 
  4044d7:	4c 89 e7             	mov    %r12,%rdi
  4044da:	e8 f1 fe ff ff       	call   4043d0 <dlerror@plt+0x1eb0>
  4044df:	48 85 c0             	test   %rax,%rax
  4044e2:	0f 95 c0             	setne  %al
  4044e5:	0f b6 c0             	movzbl %al,%eax
  4044e8:	48 81 c4 08 30 00 00 	add    $0x3008,%rsp
  4044ef:	5d                   	pop    %rbp
  4044f0:	41 5c                	pop    %r12
  4044f2:	c3                   	ret    
  4044f3:	66 66 2e 0f 1f 84 00 	data16 cs nopw 0x0(%rax,%rax,1)
  4044fa:	00 00 00 00 
  4044fe:	66 90                	xchg   %ax,%ax
  404500:	48 83 ec 08          	sub    $0x8,%rsp
  404504:	48 89 fe             	mov    %rdi,%rsi
  404507:	48 89 d7             	mov    %rdx,%rdi
  40450a:	e8 d1 dd ff ff       	call   4022e0 <realpath@plt>
  40450f:	48 85 c0             	test   %rax,%rax
  404512:	0f 95 c0             	setne  %al
  404515:	48 83 c4 08          	add    $0x8,%rsp
  404519:	0f b6 c0             	movzbl %al,%eax
  40451c:	c3                   	ret    
  40451d:	0f 1f 00             	nopl   (%rax)
  404520:	48 81 ec 98 00 00 00 	sub    $0x98,%rsp
  404527:	48 89 fe             	mov    %rdi,%rsi
  40452a:	bf 01 00 00 00       	mov    $0x1,%edi
  40452f:	48 89 e2             	mov    %rsp,%rdx
  404532:	e8 19 de ff ff       	call   402350 <__xstat@plt>
  404537:	85 c0                	test   %eax,%eax
  404539:	0f 94 c0             	sete   %al
  40453c:	48 81 c4 98 00 00 00 	add    $0x98,%rsp
  404543:	0f b6 c0             	movzbl %al,%eax
  404546:	c3                   	ret    
  404547:	66 0f 1f 84 00 00 00 	nopw   0x0(%rax,%rax,1)
  40454e:	00 00 
  404550:	55                   	push   %rbp
  404551:	48 89 f5             	mov    %rsi,%rbp
  404554:	53                   	push   %rbx
  404555:	48 89 fb             	mov    %rdi,%rbx
  404558:	bf 6e b0 40 00       	mov    $0x40b06e,%edi
  40455d:	48 81 ec 98 00 00 00 	sub    $0x98,%rsp
  404564:	e8 77 34 00 00       	call   4079e0 <dlerror@plt+0x54c0>
  404569:	48 85 c0             	test   %rax,%rax
  40456c:	74 52                	je     4045c0 <dlerror@plt+0x20a0>
  40456e:	be ab 98 40 00       	mov    $0x4098ab,%esi
  404573:	48 89 c7             	mov    %rax,%rdi
  404576:	e8 05 df ff ff       	call   402480 <strtok@plt>
  40457b:	48 89 c6             	mov    %rax,%rsi
  40457e:	48 85 c0             	test   %rax,%rax
  404581:	74 3d                	je     4045c0 <dlerror@plt+0x20a0>
  404583:	0f 1f 44 00 00       	nopl   0x0(%rax,%rax,1)
  404588:	48 89 ea             	mov    %rbp,%rdx
  40458b:	48 89 df             	mov    %rbx,%rdi
  40458e:	e8 3d fe ff ff       	call   4043d0 <dlerror@plt+0x1eb0>
  404593:	48 85 c0             	test   %rax,%rax
  404596:	74 14                	je     4045ac <dlerror@plt+0x208c>
  404598:	48 89 e2             	mov    %rsp,%rdx
  40459b:	48 89 de             	mov    %rbx,%rsi
  40459e:	bf 01 00 00 00       	mov    $0x1,%edi
  4045a3:	e8 a8 dd ff ff       	call   402350 <__xstat@plt>
  4045a8:	85 c0                	test   %eax,%eax
  4045aa:	74 24                	je     4045d0 <dlerror@plt+0x20b0>
  4045ac:	be ab 98 40 00       	mov    $0x4098ab,%esi
  4045b1:	31 ff                	xor    %edi,%edi
  4045b3:	e8 c8 de ff ff       	call   402480 <strtok@plt>
  4045b8:	48 89 c6             	mov    %rax,%rsi
  4045bb:	48 85 c0             	test   %rax,%rax
  4045be:	75 c8                	jne    404588 <dlerror@plt+0x2068>
  4045c0:	48 81 c4 98 00 00 00 	add    $0x98,%rsp
  4045c7:	31 c0                	xor    %eax,%eax
  4045c9:	5b                   	pop    %rbx
  4045ca:	5d                   	pop    %rbp
  4045cb:	c3                   	ret    
  4045cc:	0f 1f 40 00          	nopl   0x0(%rax)
  4045d0:	48 81 c4 98 00 00 00 	add    $0x98,%rsp
  4045d7:	b8 01 00 00 00       	mov    $0x1,%eax
  4045dc:	5b                   	pop    %rbx
  4045dd:	5d                   	pop    %rbp
  4045de:	c3                   	ret    
  4045df:	90                   	nop
  4045e0:	41 55                	push   %r13
  4045e2:	ba ff 0f 00 00       	mov    $0xfff,%edx
  4045e7:	49 89 f5             	mov    %rsi,%r13
  4045ea:	48 89 fe             	mov    %rdi,%rsi
  4045ed:	41 54                	push   %r12
  4045ef:	55                   	push   %rbp
  4045f0:	48 89 fd             	mov    %rdi,%rbp
  4045f3:	bf ad 98 40 00       	mov    $0x4098ad,%edi
  4045f8:	48 81 ec 60 10 00 00 	sub    $0x1060,%rsp
  4045ff:	e8 3c db ff ff       	call   402140 <readlink@plt>
  404604:	48 83 f8 ff          	cmp    $0xffffffffffffffff,%rax
  404608:	0f 84 f2 00 00 00    	je     404700 <dlerror@plt+0x21e0>
  40460e:	c6 44 05 00 00       	movb   $0x0,0x0(%rbp,%rax,1)
  404613:	66 0f ef c0          	pxor   %xmm0,%xmm0
  404617:	48 89 ef             	mov    %rbp,%rdi
  40461a:	4c 8d 64 24 60       	lea    0x60(%rsp),%r12
  40461f:	0f 11 44 24 10       	movups %xmm0,0x10(%rsp)
  404624:	0f 11 44 24 20       	movups %xmm0,0x20(%rsp)
  404629:	0f 11 44 24 30       	movups %xmm0,0x30(%rsp)
  40462e:	0f 11 44 24 40       	movups %xmm0,0x40(%rsp)
  404633:	c6 44 24 50 00       	movb   $0x0,0x50(%rsp)
  404638:	c7 44 24 0c 00 00 00 	movl   $0x0,0xc(%rsp)
  40463f:	00 
  404640:	e8 eb dc ff ff       	call   402330 <__xpg_basename@plt>
  404645:	ba 00 10 00 00       	mov    $0x1000,%edx
  40464a:	4c 89 e7             	mov    %r12,%rdi
  40464d:	48 89 c6             	mov    %rax,%rsi
  404650:	e8 9b dd ff ff       	call   4023f0 <__strcpy_chk@plt>
  404655:	31 c0                	xor    %eax,%eax
  404657:	48 8d 4c 24 0c       	lea    0xc(%rsp),%rcx
  40465c:	4c 89 e7             	mov    %r12,%rdi
  40465f:	48 8d 54 24 10       	lea    0x10(%rsp),%rdx
  404664:	be bc 98 40 00       	mov    $0x4098bc,%esi
  404669:	e8 32 dd ff ff       	call   4023a0 <__isoc99_sscanf@plt>
  40466e:	83 f8 02             	cmp    $0x2,%eax
  404671:	75 28                	jne    40469b <dlerror@plt+0x217b>
  404673:	be 2f 00 00 00       	mov    $0x2f,%esi
  404678:	4c 89 ef             	mov    %r13,%rdi
  40467b:	e8 50 db ff ff       	call   4021d0 <strchr@plt>
  404680:	4c 89 ee             	mov    %r13,%rsi
  404683:	48 85 c0             	test   %rax,%rax
  404686:	0f 84 f4 00 00 00    	je     404780 <dlerror@plt+0x2260>
  40468c:	48 89 ef             	mov    %rbp,%rdi
  40468f:	e8 dc fd ff ff       	call   404470 <dlerror@plt+0x1f50>
  404694:	41 89 c5             	mov    %eax,%r13d
  404697:	85 c0                	test   %eax,%eax
  404699:	74 51                	je     4046ec <dlerror@plt+0x21cc>
  40469b:	4c 89 e2             	mov    %r12,%rdx
  40469e:	48 89 ee             	mov    %rbp,%rsi
  4046a1:	bf 01 00 00 00       	mov    $0x1,%edi
  4046a6:	41 bd 01 00 00 00    	mov    $0x1,%r13d
  4046ac:	e8 0f db ff ff       	call   4021c0 <__lxstat@plt>
  4046b1:	85 c0                	test   %eax,%eax
  4046b3:	78 37                	js     4046ec <dlerror@plt+0x21cc>
  4046b5:	8b 44 24 78          	mov    0x78(%rsp),%eax
  4046b9:	41 bd 01 00 00 00    	mov    $0x1,%r13d
  4046bf:	25 00 f0 00 00       	and    $0xf000,%eax
  4046c4:	3d 00 a0 00 00       	cmp    $0xa000,%eax
  4046c9:	75 21                	jne    4046ec <dlerror@plt+0x21cc>
  4046cb:	31 c0                	xor    %eax,%eax
  4046cd:	48 89 e9             	mov    %rbp,%rcx
  4046d0:	ba a2 95 40 00       	mov    $0x4095a2,%edx
  4046d5:	be 00 10 00 00       	mov    $0x1000,%esi
  4046da:	4c 89 e7             	mov    %r12,%rdi
  4046dd:	e8 0e db ff ff       	call   4021f0 <snprintf@plt>
  4046e2:	3d ff 0f 00 00       	cmp    $0xfff,%eax
  4046e7:	7e 77                	jle    404760 <dlerror@plt+0x2240>
  4046e9:	45 31 ed             	xor    %r13d,%r13d
  4046ec:	48 81 c4 60 10 00 00 	add    $0x1060,%rsp
  4046f3:	44 89 e8             	mov    %r13d,%eax
  4046f6:	5d                   	pop    %rbp
  4046f7:	41 5c                	pop    %r12
  4046f9:	41 5d                	pop    %r13
  4046fb:	c3                   	ret    
  4046fc:	0f 1f 40 00          	nopl   0x0(%rax)
  404700:	66 0f ef c0          	pxor   %xmm0,%xmm0
  404704:	48 89 ef             	mov    %rbp,%rdi
  404707:	4c 8d 64 24 60       	lea    0x60(%rsp),%r12
  40470c:	c6 44 24 50 00       	movb   $0x0,0x50(%rsp)
  404711:	0f 11 44 24 10       	movups %xmm0,0x10(%rsp)
  404716:	0f 11 44 24 20       	movups %xmm0,0x20(%rsp)
  40471b:	0f 11 44 24 30       	movups %xmm0,0x30(%rsp)
  404720:	0f 11 44 24 40       	movups %xmm0,0x40(%rsp)
  404725:	c7 44 24 0c 00 00 00 	movl   $0x0,0xc(%rsp)
  40472c:	00 
  40472d:	e8 fe db ff ff       	call   402330 <__xpg_basename@plt>
  404732:	4c 89 e7             	mov    %r12,%rdi
  404735:	ba 00 10 00 00       	mov    $0x1000,%edx
  40473a:	48 89 c6             	mov    %rax,%rsi
  40473d:	e8 ae dc ff ff       	call   4023f0 <__strcpy_chk@plt>
  404742:	48 8d 4c 24 0c       	lea    0xc(%rsp),%rcx
  404747:	4c 89 e7             	mov    %r12,%rdi
  40474a:	31 c0                	xor    %eax,%eax
  40474c:	48 8d 54 24 10       	lea    0x10(%rsp),%rdx
  404751:	be bc 98 40 00       	mov    $0x4098bc,%esi
  404756:	e8 45 dc ff ff       	call   4023a0 <__isoc99_sscanf@plt>
  40475b:	e9 13 ff ff ff       	jmp    404673 <dlerror@plt+0x2153>
  404760:	48 89 ee             	mov    %rbp,%rsi
  404763:	4c 89 e7             	mov    %r12,%rdi
  404766:	e8 75 db ff ff       	call   4022e0 <realpath@plt>
  40476b:	48 85 c0             	test   %rax,%rax
  40476e:	0f 85 78 ff ff ff    	jne    4046ec <dlerror@plt+0x21cc>
  404774:	e9 70 ff ff ff       	jmp    4046e9 <dlerror@plt+0x21c9>
  404779:	0f 1f 80 00 00 00 00 	nopl   0x0(%rax)
  404780:	4c 89 e7             	mov    %r12,%rdi
  404783:	e8 c8 fd ff ff       	call   404550 <dlerror@plt+0x2030>
  404788:	85 c0                	test   %eax,%eax
  40478a:	75 22                	jne    4047ae <dlerror@plt+0x228e>
  40478c:	31 c0                	xor    %eax,%eax
  40478e:	4c 89 e9             	mov    %r13,%rcx
  404791:	ba a2 95 40 00       	mov    $0x4095a2,%edx
  404796:	be 00 10 00 00       	mov    $0x1000,%esi
  40479b:	4c 89 e7             	mov    %r12,%rdi
  40479e:	e8 4d da ff ff       	call   4021f0 <snprintf@plt>
  4047a3:	3d ff 0f 00 00       	cmp    $0xfff,%eax
  4047a8:	0f 8f 3b ff ff ff    	jg     4046e9 <dlerror@plt+0x21c9>
  4047ae:	4c 89 e6             	mov    %r12,%rsi
  4047b1:	48 89 ef             	mov    %rbp,%rdi
  4047b4:	e8 b7 fc ff ff       	call   404470 <dlerror@plt+0x1f50>
  4047b9:	85 c0                	test   %eax,%eax
  4047bb:	0f 85 da fe ff ff    	jne    40469b <dlerror@plt+0x217b>
  4047c1:	e9 23 ff ff ff       	jmp    4046e9 <dlerror@plt+0x21c9>
  4047c6:	66 2e 0f 1f 84 00 00 	cs nopw 0x0(%rax,%rax,1)
  4047cd:	00 00 00 
  4047d0:	48 83 ec 08          	sub    $0x8,%rsp
  4047d4:	49 89 f1             	mov    %rsi,%r9
  4047d7:	31 c0                	xor    %eax,%eax
  4047d9:	41 b8 a9 95 40 00    	mov    $0x4095a9,%r8d
  4047df:	48 c7 c1 ff ff ff ff 	mov    $0xffffffffffffffff,%rcx
  4047e6:	ba 01 00 00 00       	mov    $0x1,%edx
  4047eb:	be 00 10 00 00       	mov    $0x1000,%esi
  4047f0:	e8 5b d8 ff ff       	call   402050 <__snprintf_chk@plt>
  4047f5:	3d ff 0f 00 00       	cmp    $0xfff,%eax
  4047fa:	0f 9e c0             	setle  %al
  4047fd:	48 83 c4 08          	add    $0x8,%rsp
  404801:	0f b6 c0             	movzbl %al,%eax
  404804:	c3                   	ret    
  404805:	66 66 2e 0f 1f 84 00 	data16 cs nopw 0x0(%rax,%rax,1)
  40480c:	00 00 00 00 
  404810:	48 81 ec 98 00 00 00 	sub    $0x98,%rsp
  404817:	48 89 fe             	mov    %rdi,%rsi
  40481a:	bf 01 00 00 00       	mov    $0x1,%edi
  40481f:	48 89 e2             	mov    %rsp,%rdx
  404822:	e8 99 d9 ff ff       	call   4021c0 <__lxstat@plt>
  404827:	41 89 c0             	mov    %eax,%r8d
  40482a:	31 c0                	xor    %eax,%eax
  40482c:	45 85 c0             	test   %r8d,%r8d
  40482f:	78 14                	js     404845 <dlerror@plt+0x2325>
  404831:	8b 44 24 18          	mov    0x18(%rsp),%eax
  404835:	25 00 f0 00 00       	and    $0xf000,%eax
  40483a:	3d 00 a0 00 00       	cmp    $0xa000,%eax
  40483f:	0f 94 c0             	sete   %al
  404842:	0f b6 c0             	movzbl %al,%eax
  404845:	48 81 c4 98 00 00 00 	add    $0x98,%rsp
  40484c:	c3                   	ret    
  40484d:	0f 1f 00             	nopl   (%rax)
  404850:	be c0 01 00 00       	mov    $0x1c0,%esi
  404855:	e9 a6 d8 ff ff       	jmp    402100 <mkdir@plt>
  40485a:	66 0f 1f 44 00 00    	nopw   0x0(%rax,%rax,1)
  404860:	e9 7b d9 ff ff       	jmp    4021e0 <symlink@plt>
  404865:	66 2e 0f 1f 84 00 00 	cs nopw 0x0(%rax,%rax,1)
  40486c:	00 00 00 
  40486f:	90                   	nop
  404870:	41 54                	push   %r12
  404872:	49 89 f4             	mov    %rsi,%r12
  404875:	55                   	push   %rbp
  404876:	48 89 fd             	mov    %rdi,%rbp
  404879:	48 89 f7             	mov    %rsi,%rdi
  40487c:	53                   	push   %rbx
  40487d:	e8 2e d9 ff ff       	call   4021b0 <strlen@plt>
  404882:	4c 89 e6             	mov    %r12,%rsi
  404885:	48 89 ef             	mov    %rbp,%rdi
  404888:	48 89 c2             	mov    %rax,%rdx
  40488b:	48 89 c3             	mov    %rax,%rbx
  40488e:	e8 2d d8 ff ff       	call   4020c0 <strncmp@plt>
  404893:	85 c0                	test   %eax,%eax
  404895:	75 31                	jne    4048c8 <dlerror@plt+0x23a8>
  404897:	48 8d 44 1d 00       	lea    0x0(%rbp,%rbx,1),%rax
  40489c:	0f b6 10             	movzbl (%rax),%edx
  40489f:	84 d2                	test   %dl,%dl
  4048a1:	74 0c                	je     4048af <dlerror@plt+0x238f>
  4048a3:	80 fa 3d             	cmp    $0x3d,%dl
  4048a6:	74 10                	je     4048b8 <dlerror@plt+0x2398>
  4048a8:	31 c0                	xor    %eax,%eax
  4048aa:	80 fa 20             	cmp    $0x20,%dl
  4048ad:	74 09                	je     4048b8 <dlerror@plt+0x2398>
  4048af:	5b                   	pop    %rbx
  4048b0:	5d                   	pop    %rbp
  4048b1:	41 5c                	pop    %r12
  4048b3:	c3                   	ret    
  4048b4:	0f 1f 40 00          	nopl   0x0(%rax)
  4048b8:	48 8d 44 1d 01       	lea    0x1(%rbp,%rbx,1),%rax
  4048bd:	5b                   	pop    %rbx
  4048be:	5d                   	pop    %rbp
  4048bf:	41 5c                	pop    %r12
  4048c1:	c3                   	ret    
  4048c2:	66 0f 1f 44 00 00    	nopw   0x0(%rax,%rax,1)
  4048c8:	5b                   	pop    %rbx
  4048c9:	31 c0                	xor    %eax,%eax
  4048cb:	5d                   	pop    %rbp
  4048cc:	41 5c                	pop    %r12
  4048ce:	c3                   	ret    
  4048cf:	90                   	nop
  4048d0:	53                   	push   %rbx
  4048d1:	ba 00 10 00 00       	mov    $0x1000,%edx
  4048d6:	48 89 f3             	mov    %rsi,%rbx
  4048d9:	48 89 fe             	mov    %rdi,%rsi
  4048dc:	48 81 ec 10 40 00 00 	sub    $0x4010,%rsp
  4048e3:	48 89 e7             	mov    %rsp,%rdi
  4048e6:	e8 45 d8 ff ff       	call   402130 <mbstowcs@plt>
  4048eb:	48 89 e7             	mov    %rsp,%rdi
  4048ee:	e8 bd da ff ff       	call   4023b0 <wcsdup@plt>
  4048f3:	48 85 c0             	test   %rax,%rax
  4048f6:	48 89 03             	mov    %rax,(%rbx)
  4048f9:	0f 94 c0             	sete   %al
  4048fc:	48 81 c4 10 40 00 00 	add    $0x4010,%rsp
  404903:	0f b6 c0             	movzbl %al,%eax
  404906:	5b                   	pop    %rbx
  404907:	f7 d8                	neg    %eax
  404909:	c3                   	ret    
  40490a:	66 0f 1f 44 00 00    	nopw   0x0(%rax,%rax,1)
  404910:	48 85 ff             	test   %rdi,%rdi
  404913:	74 7b                	je     404990 <dlerror@plt+0x2470>
  404915:	55                   	push   %rbp
  404916:	48 89 fd             	mov    %rdi,%rbp
  404919:	53                   	push   %rbx
  40491a:	48 83 ec 08          	sub    $0x8,%rsp
  40491e:	8b 57 20             	mov    0x20(%rdi),%edx
  404921:	85 d2                	test   %edx,%edx
  404923:	7e 21                	jle    404946 <dlerror@plt+0x2426>
  404925:	31 db                	xor    %ebx,%ebx
  404927:	66 0f 1f 84 00 00 00 	nopw   0x0(%rax,%rax,1)
  40492e:	00 00 
  404930:	48 8b 45 28          	mov    0x28(%rbp),%rax
  404934:	48 8b 3c d8          	mov    (%rax,%rbx,8),%rdi
  404938:	48 83 c3 01          	add    $0x1,%rbx
  40493c:	e8 2f d7 ff ff       	call   402070 <free@plt>
  404941:	39 5d 20             	cmp    %ebx,0x20(%rbp)
  404944:	7f ea                	jg     404930 <dlerror@plt+0x2410>
  404946:	48 8b 7d 28          	mov    0x28(%rbp),%rdi
  40494a:	e8 21 d7 ff ff       	call   402070 <free@plt>
  40494f:	8b 45 30             	mov    0x30(%rbp),%eax
  404952:	85 c0                	test   %eax,%eax
  404954:	7e 20                	jle    404976 <dlerror@plt+0x2456>
  404956:	31 db                	xor    %ebx,%ebx
  404958:	0f 1f 84 00 00 00 00 	nopl   0x0(%rax,%rax,1)
  40495f:	00 
  404960:	48 8b 45 38          	mov    0x38(%rbp),%rax
  404964:	48 8b 3c d8          	mov    (%rax,%rbx,8),%rdi
  404968:	48 83 c3 01          	add    $0x1,%rbx
  40496c:	e8 ff d6 ff ff       	call   402070 <free@plt>
  404971:	39 5d 30             	cmp    %ebx,0x30(%rbp)
  404974:	7f ea                	jg     404960 <dlerror@plt+0x2440>
  404976:	48 8b 7d 38          	mov    0x38(%rbp),%rdi
  40497a:	e8 f1 d6 ff ff       	call   402070 <free@plt>
  40497f:	48 83 c4 08          	add    $0x8,%rsp
  404983:	48 89 ef             	mov    %rbp,%rdi
  404986:	5b                   	pop    %rbx
  404987:	5d                   	pop    %rbp
  404988:	e9 e3 d6 ff ff       	jmp    402070 <free@plt>
  40498d:	0f 1f 00             	nopl   (%rax)
  404990:	c3                   	ret    
  404991:	66 66 2e 0f 1f 84 00 	data16 cs nopw 0x0(%rax,%rax,1)
  404998:	00 00 00 00 
  40499c:	0f 1f 40 00          	nopl   0x0(%rax)
  4049a0:	41 57                	push   %r15
  4049a2:	be 40 00 00 00       	mov    $0x40,%esi
  4049a7:	41 56                	push   %r14
  4049a9:	41 55                	push   %r13
  4049ab:	41 54                	push   %r12
  4049ad:	55                   	push   %rbp
  4049ae:	53                   	push   %rbx
  4049af:	48 89 fb             	mov    %rdi,%rbx
  4049b2:	bf 01 00 00 00       	mov    $0x1,%edi
  4049b7:	48 83 ec 08          	sub    $0x8,%rsp
  4049bb:	e8 b0 d8 ff ff       	call   402270 <calloc@plt>
  4049c0:	49 89 c4             	mov    %rax,%r12
  4049c3:	48 85 c0             	test   %rax,%rax
  4049c6:	0f 84 57 01 00 00    	je     404b23 <dlerror@plt+0x2603>
  4049cc:	c7 40 18 ff ff ff ff 	movl   $0xffffffff,0x18(%rax)
  4049d3:	48 8b 6b 08          	mov    0x8(%rbx),%rbp
  4049d7:	48 3b 6b 10          	cmp    0x10(%rbx),%rbp
  4049db:	0f 83 08 03 00 00    	jae    404ce9 <dlerror@plt+0x27c9>
  4049e1:	45 31 ff             	xor    %r15d,%r15d
  4049e4:	45 31 f6             	xor    %r14d,%r14d
  4049e7:	41 bd cd 98 40 00    	mov    $0x4098cd,%r13d
  4049ed:	eb 24                	jmp    404a13 <dlerror@plt+0x24f3>
  4049ef:	90                   	nop
  4049f0:	80 7d 13 00          	cmpb   $0x0,0x13(%rbp)
  4049f4:	75 7a                	jne    404a70 <dlerror@plt+0x2550>
  4049f6:	41 83 04 24 01       	addl   $0x1,(%r12)
  4049fb:	48 89 ee             	mov    %rbp,%rsi
  4049fe:	48 89 df             	mov    %rbx,%rdi
  404a01:	e8 9a df ff ff       	call   4029a0 <dlerror@plt+0x480>
  404a06:	48 89 c5             	mov    %rax,%rbp
  404a09:	48 39 43 10          	cmp    %rax,0x10(%rbx)
  404a0d:	0f 86 25 01 00 00    	jbe    404b38 <dlerror@plt+0x2618>
  404a13:	4c 8d 45 12          	lea    0x12(%rbp),%r8
  404a17:	b9 04 00 00 00       	mov    $0x4,%ecx
  404a1c:	4c 89 ef             	mov    %r13,%rdi
  404a1f:	4c 89 c6             	mov    %r8,%rsi
  404a22:	f3 a6                	repz cmpsb %es:(%rdi),%ds:(%rsi)
  404a24:	0f 97 c0             	seta   %al
  404a27:	1c 00                	sbb    $0x0,%al
  404a29:	84 c0                	test   %al,%al
  404a2b:	74 ce                	je     4049fb <dlerror@plt+0x24db>
  404a2d:	0f b6 45 12          	movzbl 0x12(%rbp),%eax
  404a31:	83 f8 76             	cmp    $0x76,%eax
  404a34:	74 ba                	je     4049f0 <dlerror@plt+0x24d0>
  404a36:	bf d2 98 40 00       	mov    $0x4098d2,%edi
  404a3b:	b9 08 00 00 00       	mov    $0x8,%ecx
  404a40:	4c 89 c6             	mov    %r8,%rsi
  404a43:	f3 a6                	repz cmpsb %es:(%rdi),%ds:(%rsi)
  404a45:	0f 97 c2             	seta   %dl
  404a48:	80 da 00             	sbb    $0x0,%dl
  404a4b:	84 d2                	test   %dl,%dl
  404a4d:	74 a7                	je     4049f6 <dlerror@plt+0x24d6>
  404a4f:	83 f8 75             	cmp    $0x75,%eax
  404a52:	0f 85 88 00 00 00    	jne    404ae0 <dlerror@plt+0x25c0>
  404a58:	80 7d 13 00          	cmpb   $0x0,0x13(%rbp)
  404a5c:	75 2e                	jne    404a8c <dlerror@plt+0x256c>
  404a5e:	41 c7 44 24 04 01 00 	movl   $0x1,0x4(%r12)
  404a65:	00 00 
  404a67:	eb 92                	jmp    4049fb <dlerror@plt+0x24db>
  404a69:	0f 1f 80 00 00 00 00 	nopl   0x0(%rax)
  404a70:	bf d2 98 40 00       	mov    $0x4098d2,%edi
  404a75:	b9 08 00 00 00       	mov    $0x8,%ecx
  404a7a:	4c 89 c6             	mov    %r8,%rsi
  404a7d:	f3 a6                	repz cmpsb %es:(%rdi),%ds:(%rsi)
  404a7f:	0f 97 c0             	seta   %al
  404a82:	1c 00                	sbb    $0x0,%al
  404a84:	84 c0                	test   %al,%al
  404a86:	0f 84 6a ff ff ff    	je     4049f6 <dlerror@plt+0x24d6>
  404a8c:	bf da 98 40 00       	mov    $0x4098da,%edi
  404a91:	b9 0b 00 00 00       	mov    $0xb,%ecx
  404a96:	4c 89 c6             	mov    %r8,%rsi
  404a99:	f3 a6                	repz cmpsb %es:(%rdi),%ds:(%rsi)
  404a9b:	0f 97 c0             	seta   %al
  404a9e:	1c 00                	sbb    $0x0,%al
  404aa0:	84 c0                	test   %al,%al
  404aa2:	74 ba                	je     404a5e <dlerror@plt+0x253e>
  404aa4:	bf e5 98 40 00       	mov    $0x4098e5,%edi
  404aa9:	b9 09 00 00 00       	mov    $0x9,%ecx
  404aae:	4c 89 c6             	mov    %r8,%rsi
  404ab1:	f3 a6                	repz cmpsb %es:(%rdi),%ds:(%rsi)
  404ab3:	0f 97 c0             	seta   %al
  404ab6:	1c 00                	sbb    $0x0,%al
  404ab8:	84 c0                	test   %al,%al
  404aba:	74 4c                	je     404b08 <dlerror@plt+0x25e8>
  404abc:	41 0f b6 00          	movzbl (%r8),%eax
  404ac0:	83 f8 57             	cmp    $0x57,%eax
  404ac3:	0f 85 c7 01 00 00    	jne    404c90 <dlerror@plt+0x2770>
  404ac9:	41 80 78 01 20       	cmpb   $0x20,0x1(%r8)
  404ace:	0f 85 bc 01 00 00    	jne    404c90 <dlerror@plt+0x2770>
  404ad4:	41 83 c6 01          	add    $0x1,%r14d
  404ad8:	e9 1e ff ff ff       	jmp    4049fb <dlerror@plt+0x24db>
  404add:	0f 1f 00             	nopl   (%rax)
  404ae0:	bf da 98 40 00       	mov    $0x4098da,%edi
  404ae5:	b9 0b 00 00 00       	mov    $0xb,%ecx
  404aea:	4c 89 c6             	mov    %r8,%rsi
  404aed:	f3 a6                	repz cmpsb %es:(%rdi),%ds:(%rsi)
  404aef:	0f 97 c2             	seta   %dl
  404af2:	80 da 00             	sbb    $0x0,%dl
  404af5:	84 d2                	test   %dl,%dl
  404af7:	0f 84 61 ff ff ff    	je     404a5e <dlerror@plt+0x253e>
  404afd:	83 f8 4f             	cmp    $0x4f,%eax
  404b00:	75 a2                	jne    404aa4 <dlerror@plt+0x2584>
  404b02:	80 7d 13 00          	cmpb   $0x0,0x13(%rbp)
  404b06:	75 9c                	jne    404aa4 <dlerror@plt+0x2584>
  404b08:	41 83 44 24 08 01    	addl   $0x1,0x8(%r12)
  404b0e:	e9 e8 fe ff ff       	jmp    4049fb <dlerror@plt+0x24db>
  404b13:	0f 1f 44 00 00       	nopl   0x0(%rax,%rax,1)
  404b18:	4c 89 e7             	mov    %r12,%rdi
  404b1b:	45 31 e4             	xor    %r12d,%r12d
  404b1e:	e8 ed fd ff ff       	call   404910 <dlerror@plt+0x23f0>
  404b23:	48 83 c4 08          	add    $0x8,%rsp
  404b27:	4c 89 e0             	mov    %r12,%rax
  404b2a:	5b                   	pop    %rbx
  404b2b:	5d                   	pop    %rbp
  404b2c:	41 5c                	pop    %r12
  404b2e:	41 5d                	pop    %r13
  404b30:	41 5e                	pop    %r14
  404b32:	41 5f                	pop    %r15
  404b34:	c3                   	ret    
  404b35:	0f 1f 00             	nopl   (%rax)
  404b38:	49 63 fe             	movslq %r14d,%rdi
  404b3b:	4d 63 ff             	movslq %r15d,%r15
  404b3e:	be 08 00 00 00       	mov    $0x8,%esi
  404b43:	e8 28 d7 ff ff       	call   402270 <calloc@plt>
  404b48:	be 08 00 00 00       	mov    $0x8,%esi
  404b4d:	4c 89 ff             	mov    %r15,%rdi
  404b50:	49 89 44 24 28       	mov    %rax,0x28(%r12)
  404b55:	48 89 c5             	mov    %rax,%rbp
  404b58:	e8 13 d7 ff ff       	call   402270 <calloc@plt>
  404b5d:	49 89 44 24 38       	mov    %rax,0x38(%r12)
  404b62:	48 85 ed             	test   %rbp,%rbp
  404b65:	74 b1                	je     404b18 <dlerror@plt+0x25f8>
  404b67:	48 85 c0             	test   %rax,%rax
  404b6a:	74 ac                	je     404b18 <dlerror@plt+0x25f8>
  404b6c:	48 8b 6b 08          	mov    0x8(%rbx),%rbp
  404b70:	48 39 6b 10          	cmp    %rbp,0x10(%rbx)
  404b74:	77 4d                	ja     404bc3 <dlerror@plt+0x26a3>
  404b76:	eb ab                	jmp    404b23 <dlerror@plt+0x2603>
  404b78:	0f 1f 84 00 00 00 00 	nopl   0x0(%rax,%rax,1)
  404b7f:	00 
  404b80:	80 7a 01 20          	cmpb   $0x20,0x1(%rdx)
  404b84:	75 4a                	jne    404bd0 <dlerror@plt+0x26b0>
  404b86:	49 63 54 24 20       	movslq 0x20(%r12),%rdx
  404b8b:	49 8b 44 24 28       	mov    0x28(%r12),%rax
  404b90:	48 8d 7d 14          	lea    0x14(%rbp),%rdi
  404b94:	48 8d 34 d0          	lea    (%rax,%rdx,8),%rsi
  404b98:	e8 33 fd ff ff       	call   4048d0 <dlerror@plt+0x23b0>
  404b9d:	85 c0                	test   %eax,%eax
  404b9f:	0f 88 73 ff ff ff    	js     404b18 <dlerror@plt+0x25f8>
  404ba5:	41 83 44 24 20 01    	addl   $0x1,0x20(%r12)
  404bab:	48 89 ee             	mov    %rbp,%rsi
  404bae:	48 89 df             	mov    %rbx,%rdi
  404bb1:	e8 ea dd ff ff       	call   4029a0 <dlerror@plt+0x480>
  404bb6:	48 89 c5             	mov    %rax,%rbp
  404bb9:	48 39 43 10          	cmp    %rax,0x10(%rbx)
  404bbd:	0f 86 60 ff ff ff    	jbe    404b23 <dlerror@plt+0x2603>
  404bc3:	0f b6 45 12          	movzbl 0x12(%rbp),%eax
  404bc7:	48 8d 55 12          	lea    0x12(%rbp),%rdx
  404bcb:	83 f8 57             	cmp    $0x57,%eax
  404bce:	74 b0                	je     404b80 <dlerror@plt+0x2660>
  404bd0:	83 f8 58             	cmp    $0x58,%eax
  404bd3:	75 d6                	jne    404bab <dlerror@plt+0x268b>
  404bd5:	80 7a 01 20          	cmpb   $0x20,0x1(%rdx)
  404bd9:	75 d0                	jne    404bab <dlerror@plt+0x268b>
  404bdb:	49 63 54 24 30       	movslq 0x30(%r12),%rdx
  404be0:	49 8b 44 24 38       	mov    0x38(%r12),%rax
  404be5:	4c 8d 6d 14          	lea    0x14(%rbp),%r13
  404be9:	4c 89 ef             	mov    %r13,%rdi
  404bec:	48 8d 34 d0          	lea    (%rax,%rdx,8),%rsi
  404bf0:	e8 db fc ff ff       	call   4048d0 <dlerror@plt+0x23b0>
  404bf5:	85 c0                	test   %eax,%eax
  404bf7:	0f 88 1b ff ff ff    	js     404b18 <dlerror@plt+0x25f8>
  404bfd:	41 83 44 24 30 01    	addl   $0x1,0x30(%r12)
  404c03:	be f8 98 40 00       	mov    $0x4098f8,%esi
  404c08:	4c 89 ef             	mov    %r13,%rdi
  404c0b:	e8 60 fc ff ff       	call   404870 <dlerror@plt+0x2350>
  404c10:	48 85 c0             	test   %rax,%rax
  404c13:	74 10                	je     404c25 <dlerror@plt+0x2705>
  404c15:	0f b6 10             	movzbl (%rax),%edx
  404c18:	84 d2                	test   %dl,%dl
  404c1a:	75 34                	jne    404c50 <dlerror@plt+0x2730>
  404c1c:	41 c7 44 24 18 01 00 	movl   $0x1,0x18(%r12)
  404c23:	00 00 
  404c25:	be fd 98 40 00       	mov    $0x4098fd,%esi
  404c2a:	4c 89 ef             	mov    %r13,%rdi
  404c2d:	e8 3e fc ff ff       	call   404870 <dlerror@plt+0x2350>
  404c32:	48 85 c0             	test   %rax,%rax
  404c35:	0f 84 70 ff ff ff    	je     404bab <dlerror@plt+0x268b>
  404c3b:	0f b6 10             	movzbl (%rax),%edx
  404c3e:	84 d2                	test   %dl,%dl
  404c40:	75 2e                	jne    404c70 <dlerror@plt+0x2750>
  404c42:	41 c7 44 24 1c 01 00 	movl   $0x1,0x1c(%r12)
  404c49:	00 00 
  404c4b:	e9 5b ff ff ff       	jmp    404bab <dlerror@plt+0x268b>
  404c50:	83 ea 30             	sub    $0x30,%edx
  404c53:	75 04                	jne    404c59 <dlerror@plt+0x2739>
  404c55:	0f b6 50 01          	movzbl 0x1(%rax),%edx
  404c59:	31 c0                	xor    %eax,%eax
  404c5b:	85 d2                	test   %edx,%edx
  404c5d:	0f 95 c0             	setne  %al
  404c60:	41 89 44 24 18       	mov    %eax,0x18(%r12)
  404c65:	eb be                	jmp    404c25 <dlerror@plt+0x2705>
  404c67:	66 0f 1f 84 00 00 00 	nopw   0x0(%rax,%rax,1)
  404c6e:	00 00 
  404c70:	83 ea 30             	sub    $0x30,%edx
  404c73:	75 04                	jne    404c79 <dlerror@plt+0x2759>
  404c75:	0f b6 50 01          	movzbl 0x1(%rax),%edx
  404c79:	31 c0                	xor    %eax,%eax
  404c7b:	85 d2                	test   %edx,%edx
  404c7d:	0f 95 c0             	setne  %al
  404c80:	41 89 44 24 1c       	mov    %eax,0x1c(%r12)
  404c85:	e9 21 ff ff ff       	jmp    404bab <dlerror@plt+0x268b>
  404c8a:	66 0f 1f 44 00 00    	nopw   0x0(%rax,%rax,1)
  404c90:	83 f8 58             	cmp    $0x58,%eax
  404c93:	75 13                	jne    404ca8 <dlerror@plt+0x2788>
  404c95:	41 80 78 01 20       	cmpb   $0x20,0x1(%r8)
  404c9a:	75 0c                	jne    404ca8 <dlerror@plt+0x2788>
  404c9c:	41 83 c7 01          	add    $0x1,%r15d
  404ca0:	e9 56 fd ff ff       	jmp    4049fb <dlerror@plt+0x24db>
  404ca5:	0f 1f 00             	nopl   (%rax)
  404ca8:	be ee 98 40 00       	mov    $0x4098ee,%esi
  404cad:	4c 89 c7             	mov    %r8,%rdi
  404cb0:	e8 bb fb ff ff       	call   404870 <dlerror@plt+0x2350>
  404cb5:	48 85 c0             	test   %rax,%rax
  404cb8:	0f 84 3d fd ff ff    	je     4049fb <dlerror@plt+0x24db>
  404cbe:	80 38 00             	cmpb   $0x0,(%rax)
  404cc1:	0f 84 34 fd ff ff    	je     4049fb <dlerror@plt+0x24db>
  404cc7:	41 c7 44 24 0c 01 00 	movl   $0x1,0xc(%r12)
  404cce:	00 00 
  404cd0:	ba 0a 00 00 00       	mov    $0xa,%edx
  404cd5:	31 f6                	xor    %esi,%esi
  404cd7:	48 89 c7             	mov    %rax,%rdi
  404cda:	e8 c1 d7 ff ff       	call   4024a0 <strtoul@plt>
  404cdf:	49 89 44 24 10       	mov    %rax,0x10(%r12)
  404ce4:	e9 12 fd ff ff       	jmp    4049fb <dlerror@plt+0x24db>
  404ce9:	45 31 ff             	xor    %r15d,%r15d
  404cec:	31 ff                	xor    %edi,%edi
  404cee:	e9 4b fe ff ff       	jmp    404b3e <dlerror@plt+0x261e>
  404cf3:	66 66 2e 0f 1f 84 00 	data16 cs nopw 0x0(%rax,%rax,1)
  404cfa:	00 00 00 00 
  404cfe:	66 90                	xchg   %ax,%ax
  404d00:	8b 05 ae 95 00 00    	mov    0x95ae(%rip),%eax        # 40e2b4 <stderr@GLIBC_2.2.5+0xc>
  404d06:	2d 34 01 00 00       	sub    $0x134,%eax
  404d0b:	83 f8 04             	cmp    $0x4,%eax
  404d0e:	77 4f                	ja     404d5f <dlerror@plt+0x283f>
  404d10:	ff 24 c5 20 99 40 00 	jmp    *0x409920(,%rax,8)
  404d17:	66 0f 1f 84 00 00 00 	nopw   0x0(%rax,%rax,1)
  404d1e:	00 00 
  404d20:	be 88 01 00 00       	mov    $0x188,%esi
  404d25:	bf 01 00 00 00       	mov    $0x1,%edi
  404d2a:	e9 41 d5 ff ff       	jmp    402270 <calloc@plt>
  404d2f:	90                   	nop
  404d30:	be a8 01 00 00       	mov    $0x1a8,%esi
  404d35:	bf 01 00 00 00       	mov    $0x1,%edi
  404d3a:	e9 31 d5 ff ff       	jmp    402270 <calloc@plt>
  404d3f:	90                   	nop
  404d40:	be b0 01 00 00       	mov    $0x1b0,%esi
  404d45:	bf 01 00 00 00       	mov    $0x1,%edi
  404d4a:	e9 21 d5 ff ff       	jmp    402270 <calloc@plt>
  404d4f:	90                   	nop
  404d50:	be 68 01 00 00       	mov    $0x168,%esi
  404d55:	bf 01 00 00 00       	mov    $0x1,%edi
  404d5a:	e9 11 d5 ff ff       	jmp    402270 <calloc@plt>
  404d5f:	31 c0                	xor    %eax,%eax
  404d61:	c3                   	ret    
  404d62:	66 66 2e 0f 1f 84 00 	data16 cs nopw 0x0(%rax,%rax,1)
  404d69:	00 00 00 00 
  404d6d:	0f 1f 00             	nopl   (%rax)
  404d70:	55                   	push   %rbp
  404d71:	48 89 fd             	mov    %rdi,%rbp
  404d74:	ff 15 5e 96 00 00    	call   *0x965e(%rip)        # 40e3d8 <stderr@GLIBC_2.2.5+0x130>
  404d7a:	48 89 ef             	mov    %rbp,%rdi
  404d7d:	5d                   	pop    %rbp
  404d7e:	e9 ed d2 ff ff       	jmp    402070 <free@plt>
  404d83:	66 66 2e 0f 1f 84 00 	data16 cs nopw 0x0(%rax,%rax,1)
  404d8a:	00 00 00 00 
  404d8e:	66 90                	xchg   %ax,%ax
  404d90:	48 83 ec 28          	sub    $0x28,%rsp
  404d94:	8b 05 1a 95 00 00    	mov    0x951a(%rip),%eax        # 40e2b4 <stderr@GLIBC_2.2.5+0xc>
  404d9a:	2d 34 01 00 00       	sub    $0x134,%eax
  404d9f:	83 f8 04             	cmp    $0x4,%eax
  404da2:	0f 87 88 d7 ff ff    	ja     402530 <dlerror@plt+0x10>
  404da8:	48 8d 8e 70 10 00 00 	lea    0x1070(%rsi),%rcx
  404daf:	ff 24 c5 48 99 40 00 	jmp    *0x409948(,%rax,8)
  404db6:	66 2e 0f 1f 84 00 00 	cs nopw 0x0(%rax,%rax,1)
  404dbd:	00 00 00 
  404dc0:	48 8d 97 08 01 00 00 	lea    0x108(%rdi),%rdx
  404dc7:	48 89 fe             	mov    %rdi,%rsi
  404dca:	48 89 e7             	mov    %rsp,%rdi
  404dcd:	ff 15 ed 95 00 00    	call   *0x95ed(%rip)        # 40e3c0 <stderr@GLIBC_2.2.5+0x118>
  404dd3:	ff 74 24 18          	push   0x18(%rsp)
  404dd7:	ff 74 24 18          	push   0x18(%rsp)
  404ddb:	ff 74 24 18          	push   0x18(%rsp)
  404ddf:	ff 74 24 18          	push   0x18(%rsp)
  404de3:	ff 15 17 95 00 00    	call   *0x9517(%rip)        # 40e300 <stderr@GLIBC_2.2.5+0x58>
  404de9:	48 83 c4 20          	add    $0x20,%rsp
  404ded:	85 c0                	test   %eax,%eax
  404def:	0f 85 02 01 00 00    	jne    404ef7 <dlerror@plt+0x29d7>
  404df5:	48 83 c4 28          	add    $0x28,%rsp
  404df9:	c3                   	ret    
  404dfa:	66 0f 1f 44 00 00    	nopw   0x0(%rax,%rax,1)
  404e00:	48 8d 97 10 01 00 00 	lea    0x110(%rdi),%rdx
  404e07:	48 89 fe             	mov    %rdi,%rsi
  404e0a:	48 89 e7             	mov    %rsp,%rdi
  404e0d:	ff 15 ad 95 00 00    	call   *0x95ad(%rip)        # 40e3c0 <stderr@GLIBC_2.2.5+0x118>
  404e13:	ff 74 24 18          	push   0x18(%rsp)
  404e17:	ff 74 24 18          	push   0x18(%rsp)
  404e1b:	ff 74 24 18          	push   0x18(%rsp)
  404e1f:	ff 74 24 18          	push   0x18(%rsp)
  404e23:	ff 15 d7 94 00 00    	call   *0x94d7(%rip)        # 40e300 <stderr@GLIBC_2.2.5+0x58>
  404e29:	48 83 c4 20          	add    $0x20,%rsp
  404e2d:	85 c0                	test   %eax,%eax
  404e2f:	74 c4                	je     404df5 <dlerror@plt+0x28d5>
  404e31:	b8 ff ff ff ff       	mov    $0xffffffff,%eax
  404e36:	eb bd                	jmp    404df5 <dlerror@plt+0x28d5>
  404e38:	0f 1f 84 00 00 00 00 	nopl   0x0(%rax,%rax,1)
  404e3f:	00 
  404e40:	48 8d 57 70          	lea    0x70(%rdi),%rdx
  404e44:	48 89 fe             	mov    %rdi,%rsi
  404e47:	48 89 e7             	mov    %rsp,%rdi
  404e4a:	ff 15 70 95 00 00    	call   *0x9570(%rip)        # 40e3c0 <stderr@GLIBC_2.2.5+0x118>
  404e50:	ff 74 24 18          	push   0x18(%rsp)
  404e54:	ff 74 24 18          	push   0x18(%rsp)
  404e58:	ff 74 24 18          	push   0x18(%rsp)
  404e5c:	ff 74 24 18          	push   0x18(%rsp)
  404e60:	ff 15 9a 94 00 00    	call   *0x949a(%rip)        # 40e300 <stderr@GLIBC_2.2.5+0x58>
  404e66:	48 83 c4 20          	add    $0x20,%rsp
  404e6a:	85 c0                	test   %eax,%eax
  404e6c:	74 87                	je     404df5 <dlerror@plt+0x28d5>
  404e6e:	b8 ff ff ff ff       	mov    $0xffffffff,%eax
  404e73:	eb 80                	jmp    404df5 <dlerror@plt+0x28d5>
  404e75:	0f 1f 00             	nopl   (%rax)
  404e78:	48 8d 57 70          	lea    0x70(%rdi),%rdx
  404e7c:	48 89 fe             	mov    %rdi,%rsi
  404e7f:	48 89 e7             	mov    %rsp,%rdi
  404e82:	ff 15 38 95 00 00    	call   *0x9538(%rip)        # 40e3c0 <stderr@GLIBC_2.2.5+0x118>
  404e88:	ff 74 24 18          	push   0x18(%rsp)
  404e8c:	ff 74 24 18          	push   0x18(%rsp)
  404e90:	ff 74 24 18          	push   0x18(%rsp)
  404e94:	ff 74 24 18          	push   0x18(%rsp)
  404e98:	ff 15 62 94 00 00    	call   *0x9462(%rip)        # 40e300 <stderr@GLIBC_2.2.5+0x58>
  404e9e:	48 83 c4 20          	add    $0x20,%rsp
  404ea2:	85 c0                	test   %eax,%eax
  404ea4:	0f 84 4b ff ff ff    	je     404df5 <dlerror@plt+0x28d5>
  404eaa:	b8 ff ff ff ff       	mov    $0xffffffff,%eax
  404eaf:	e9 41 ff ff ff       	jmp    404df5 <dlerror@plt+0x28d5>
  404eb4:	0f 1f 40 00          	nopl   0x0(%rax)
  404eb8:	48 8d 97 f0 00 00 00 	lea    0xf0(%rdi),%rdx
  404ebf:	48 89 fe             	mov    %rdi,%rsi
  404ec2:	48 89 e7             	mov    %rsp,%rdi
  404ec5:	ff 15 f5 94 00 00    	call   *0x94f5(%rip)        # 40e3c0 <stderr@GLIBC_2.2.5+0x118>
  404ecb:	ff 74 24 18          	push   0x18(%rsp)
  404ecf:	ff 74 24 18          	push   0x18(%rsp)
  404ed3:	ff 74 24 18          	push   0x18(%rsp)
  404ed7:	ff 74 24 18          	push   0x18(%rsp)
  404edb:	ff 15 1f 94 00 00    	call   *0x941f(%rip)        # 40e300 <stderr@GLIBC_2.2.5+0x58>
  404ee1:	48 83 c4 20          	add    $0x20,%rsp
  404ee5:	85 c0                	test   %eax,%eax
  404ee7:	0f 84 08 ff ff ff    	je     404df5 <dlerror@plt+0x28d5>
  404eed:	b8 ff ff ff ff       	mov    $0xffffffff,%eax
  404ef2:	e9 fe fe ff ff       	jmp    404df5 <dlerror@plt+0x28d5>
  404ef7:	b8 ff ff ff ff       	mov    $0xffffffff,%eax
  404efc:	e9 f4 fe ff ff       	jmp    404df5 <dlerror@plt+0x28d5>
  404f01:	66 66 2e 0f 1f 84 00 	data16 cs nopw 0x0(%rax,%rax,1)
  404f08:	00 00 00 00 
  404f0c:	0f 1f 40 00          	nopl   0x0(%rax)
  404f10:	48 83 ec 28          	sub    $0x28,%rsp
  404f14:	8b 05 9a 93 00 00    	mov    0x939a(%rip),%eax        # 40e2b4 <stderr@GLIBC_2.2.5+0xc>
  404f1a:	2d 34 01 00 00       	sub    $0x134,%eax
  404f1f:	83 f8 04             	cmp    $0x4,%eax
  404f22:	0f 87 10 d6 ff ff    	ja     402538 <dlerror@plt+0x18>
  404f28:	48 8d 8e 70 40 00 00 	lea    0x4070(%rsi),%rcx
  404f2f:	ff 24 c5 70 99 40 00 	jmp    *0x409970(,%rax,8)
  404f36:	66 2e 0f 1f 84 00 00 	cs nopw 0x0(%rax,%rax,1)
  404f3d:	00 00 00 
  404f40:	48 8d 97 18 01 00 00 	lea    0x118(%rdi),%rdx
  404f47:	48 89 fe             	mov    %rdi,%rsi
  404f4a:	48 89 e7             	mov    %rsp,%rdi
  404f4d:	ff 15 6d 94 00 00    	call   *0x946d(%rip)        # 40e3c0 <stderr@GLIBC_2.2.5+0x118>
  404f53:	ff 74 24 18          	push   0x18(%rsp)
  404f57:	ff 74 24 18          	push   0x18(%rsp)
  404f5b:	ff 74 24 18          	push   0x18(%rsp)
  404f5f:	ff 74 24 18          	push   0x18(%rsp)
  404f63:	ff 15 97 93 00 00    	call   *0x9397(%rip)        # 40e300 <stderr@GLIBC_2.2.5+0x58>
  404f69:	48 83 c4 20          	add    $0x20,%rsp
  404f6d:	85 c0                	test   %eax,%eax
  404f6f:	0f 95 c0             	setne  %al
  404f72:	0f b6 c0             	movzbl %al,%eax
  404f75:	f7 d8                	neg    %eax
  404f77:	48 83 c4 28          	add    $0x28,%rsp
  404f7b:	c3                   	ret    
  404f7c:	0f 1f 40 00          	nopl   0x0(%rax)
  404f80:	48 8d 97 20 01 00 00 	lea    0x120(%rdi),%rdx
  404f87:	48 89 fe             	mov    %rdi,%rsi
  404f8a:	48 89 e7             	mov    %rsp,%rdi
  404f8d:	ff 15 2d 94 00 00    	call   *0x942d(%rip)        # 40e3c0 <stderr@GLIBC_2.2.5+0x118>
  404f93:	ff 74 24 18          	push   0x18(%rsp)
  404f97:	ff 74 24 18          	push   0x18(%rsp)
  404f9b:	ff 74 24 18          	push   0x18(%rsp)
  404f9f:	ff 74 24 18          	push   0x18(%rsp)
  404fa3:	ff 15 57 93 00 00    	call   *0x9357(%rip)        # 40e300 <stderr@GLIBC_2.2.5+0x58>
  404fa9:	48 83 c4 20          	add    $0x20,%rsp
  404fad:	85 c0                	test   %eax,%eax
  404faf:	0f 95 c0             	setne  %al
  404fb2:	48 83 c4 28          	add    $0x28,%rsp
  404fb6:	0f b6 c0             	movzbl %al,%eax
  404fb9:	f7 d8                	neg    %eax
  404fbb:	c3                   	ret    
  404fbc:	0f 1f 40 00          	nopl   0x0(%rax)
  404fc0:	48 8d 97 f0 00 00 00 	lea    0xf0(%rdi),%rdx
  404fc7:	48 89 fe             	mov    %rdi,%rsi
  404fca:	48 89 e7             	mov    %rsp,%rdi
  404fcd:	ff 15 ed 93 00 00    	call   *0x93ed(%rip)        # 40e3c0 <stderr@GLIBC_2.2.5+0x118>
  404fd3:	ff 74 24 18          	push   0x18(%rsp)
  404fd7:	ff 74 24 18          	push   0x18(%rsp)
  404fdb:	ff 74 24 18          	push   0x18(%rsp)
  404fdf:	ff 74 24 18          	push   0x18(%rsp)
  404fe3:	ff 15 17 93 00 00    	call   *0x9317(%rip)        # 40e300 <stderr@GLIBC_2.2.5+0x58>
  404fe9:	48 83 c4 20          	add    $0x20,%rsp
  404fed:	85 c0                	test   %eax,%eax
  404fef:	0f 95 c0             	setne  %al
  404ff2:	48 83 c4 28          	add    $0x28,%rsp
  404ff6:	0f b6 c0             	movzbl %al,%eax
  404ff9:	f7 d8                	neg    %eax
  404ffb:	c3                   	ret    
  404ffc:	0f 1f 40 00          	nopl   0x0(%rax)
  405000:	48 8d 97 f0 00 00 00 	lea    0xf0(%rdi),%rdx
  405007:	48 89 fe             	mov    %rdi,%rsi
  40500a:	48 89 e7             	mov    %rsp,%rdi
  40500d:	ff 15 ad 93 00 00    	call   *0x93ad(%rip)        # 40e3c0 <stderr@GLIBC_2.2.5+0x118>
  405013:	ff 74 24 18          	push   0x18(%rsp)
  405017:	ff 74 24 18          	push   0x18(%rsp)
  40501b:	ff 74 24 18          	push   0x18(%rsp)
  40501f:	ff 74 24 18          	push   0x18(%rsp)
  405023:	ff 15 d7 92 00 00    	call   *0x92d7(%rip)        # 40e300 <stderr@GLIBC_2.2.5+0x58>
  405029:	48 83 c4 20          	add    $0x20,%rsp
  40502d:	85 c0                	test   %eax,%eax
  40502f:	0f 95 c0             	setne  %al
  405032:	48 83 c4 28          	add    $0x28,%rsp
  405036:	0f b6 c0             	movzbl %al,%eax
  405039:	f7 d8                	neg    %eax
  40503b:	c3                   	ret    
  40503c:	0f 1f 40 00          	nopl   0x0(%rax)
  405040:	48 8d 97 00 01 00 00 	lea    0x100(%rdi),%rdx
  405047:	48 89 fe             	mov    %rdi,%rsi
  40504a:	48 89 e7             	mov    %rsp,%rdi
  40504d:	ff 15 6d 93 00 00    	call   *0x936d(%rip)        # 40e3c0 <stderr@GLIBC_2.2.5+0x118>
  405053:	ff 74 24 18          	push   0x18(%rsp)
  405057:	ff 74 24 18          	push   0x18(%rsp)
  40505b:	ff 74 24 18          	push   0x18(%rsp)
  40505f:	ff 74 24 18          	push   0x18(%rsp)
  405063:	ff 15 97 92 00 00    	call   *0x9297(%rip)        # 40e300 <stderr@GLIBC_2.2.5+0x58>
  405069:	48 83 c4 20          	add    $0x20,%rsp
  40506d:	85 c0                	test   %eax,%eax
  40506f:	0f 95 c0             	setne  %al
  405072:	48 83 c4 28          	add    $0x28,%rsp
  405076:	0f b6 c0             	movzbl %al,%eax
  405079:	f7 d8                	neg    %eax
  40507b:	c3                   	ret    
  40507c:	0f 1f 40 00          	nopl   0x0(%rax)
  405080:	41 54                	push   %r12
  405082:	41 b8 9e 95 40 00    	mov    $0x40959e,%r8d
  405088:	b9 01 10 00 00       	mov    $0x1001,%ecx
  40508d:	31 c0                	xor    %eax,%eax
  40508f:	55                   	push   %rbp
  405090:	ba 01 00 00 00       	mov    $0x1,%edx
  405095:	48 89 fd             	mov    %rdi,%rbp
  405098:	53                   	push   %rbx
  405099:	48 8d 9e 70 40 00 00 	lea    0x4070(%rsi),%rbx
  4050a0:	be 00 10 00 00       	mov    $0x1000,%esi
  4050a5:	49 89 d9             	mov    %rbx,%r9
  4050a8:	48 81 ec 80 20 00 00 	sub    $0x2080,%rsp
  4050af:	68 01 99 40 00       	push   $0x409901
  4050b4:	6a 2f                	push   $0x2f
  4050b6:	48 8d 7c 24 70       	lea    0x70(%rsp),%rdi
  4050bb:	e8 90 cf ff ff       	call   402050 <__snprintf_chk@plt>
  4050c0:	5e                   	pop    %rsi
  4050c1:	5f                   	pop    %rdi
  4050c2:	3d ff 0f 00 00       	cmp    $0xfff,%eax
  4050c7:	0f 8f a1 01 00 00    	jg     40526e <dlerror@plt+0x2d4e>
  4050cd:	68 12 99 40 00       	push   $0x409912
  4050d2:	b9 01 10 00 00       	mov    $0x1001,%ecx
  4050d7:	49 89 d9             	mov    %rbx,%r9
  4050da:	31 c0                	xor    %eax,%eax
  4050dc:	6a 2f                	push   $0x2f
  4050de:	ba 01 00 00 00       	mov    $0x1,%edx
  4050e3:	41 b8 9e 95 40 00    	mov    $0x40959e,%r8d
  4050e9:	be 00 10 00 00       	mov    $0x1000,%esi
  4050ee:	48 8d bc 24 80 10 00 	lea    0x1080(%rsp),%rdi
  4050f5:	00 
  4050f6:	e8 55 cf ff ff       	call   402050 <__snprintf_chk@plt>
  4050fb:	5a                   	pop    %rdx
  4050fc:	59                   	pop    %rcx
  4050fd:	3d ff 0f 00 00       	cmp    $0xfff,%eax
  405102:	0f 8f 66 01 00 00    	jg     40526e <dlerror@plt+0x2d4e>
  405108:	48 8d 84 24 70 10 00 	lea    0x1070(%rsp),%rax
  40510f:	00 
  405110:	48 89 5c 24 10       	mov    %rbx,0x10(%rsp)
  405115:	48 8d 7c 24 60       	lea    0x60(%rsp),%rdi
  40511a:	31 db                	xor    %ebx,%ebx
  40511c:	48 89 44 24 08       	mov    %rax,0x8(%rsp)
  405121:	31 f6                	xor    %esi,%esi
  405123:	ff 15 df 92 00 00    	call   *0x92df(%rip)        # 40e408 <stderr@GLIBC_2.2.5+0x160>
  405129:	48 89 44 1c 20       	mov    %rax,0x20(%rsp,%rbx,1)
  40512e:	48 83 c3 08          	add    $0x8,%rbx
  405132:	48 83 fb 18          	cmp    $0x18,%rbx
  405136:	74 08                	je     405140 <dlerror@plt+0x2c20>
  405138:	48 8b 3c 1c          	mov    (%rsp,%rbx,1),%rdi
  40513c:	eb e3                	jmp    405121 <dlerror@plt+0x2c01>
  40513e:	66 90                	xchg   %ax,%ax
  405140:	8b 05 6e 91 00 00    	mov    0x916e(%rip),%eax        # 40e2b4 <stderr@GLIBC_2.2.5+0xc>
  405146:	2d 34 01 00 00       	sub    $0x134,%eax
  40514b:	83 f8 04             	cmp    $0x4,%eax
  40514e:	0f 87 ec d3 ff ff    	ja     402540 <dlerror@plt+0x20>
  405154:	ff 24 c5 98 99 40 00 	jmp    *0x409998(,%rax,8)
  40515b:	0f 1f 44 00 00       	nopl   0x0(%rax,%rax,1)
  405160:	48 8d 95 00 01 00 00 	lea    0x100(%rbp),%rdx
  405167:	4c 8d 44 24 20       	lea    0x20(%rsp),%r8
  40516c:	b9 03 00 00 00       	mov    $0x3,%ecx
  405171:	48 89 ee             	mov    %rbp,%rsi
  405174:	48 8d 7c 24 40       	lea    0x40(%rsp),%rdi
  405179:	ff 15 31 92 00 00    	call   *0x9231(%rip)        # 40e3b0 <stderr@GLIBC_2.2.5+0x108>
  40517f:	c7 85 f8 00 00 00 01 	movl   $0x1,0xf8(%rbp)
  405186:	00 00 00 
  405189:	ff 74 24 58          	push   0x58(%rsp)
  40518d:	45 31 e4             	xor    %r12d,%r12d
  405190:	ff 74 24 58          	push   0x58(%rsp)
  405194:	ff 74 24 58          	push   0x58(%rsp)
  405198:	ff 74 24 58          	push   0x58(%rsp)
  40519c:	ff 15 5e 91 00 00    	call   *0x915e(%rip)        # 40e300 <stderr@GLIBC_2.2.5+0x58>
  4051a2:	48 83 c4 20          	add    $0x20,%rsp
  4051a6:	85 c0                	test   %eax,%eax
  4051a8:	41 0f 95 c4          	setne  %r12b
  4051ac:	41 f7 dc             	neg    %r12d
  4051af:	48 8d 5c 24 20       	lea    0x20(%rsp),%rbx
  4051b4:	48 8d 6c 24 38       	lea    0x38(%rsp),%rbp
  4051b9:	48 8b 3b             	mov    (%rbx),%rdi
  4051bc:	48 83 c3 08          	add    $0x8,%rbx
  4051c0:	ff 15 82 91 00 00    	call   *0x9182(%rip)        # 40e348 <stderr@GLIBC_2.2.5+0xa0>
  4051c6:	48 39 eb             	cmp    %rbp,%rbx
  4051c9:	75 ee                	jne    4051b9 <dlerror@plt+0x2c99>
  4051cb:	48 81 c4 80 20 00 00 	add    $0x2080,%rsp
  4051d2:	44 89 e0             	mov    %r12d,%eax
  4051d5:	5b                   	pop    %rbx
  4051d6:	5d                   	pop    %rbp
  4051d7:	41 5c                	pop    %r12
  4051d9:	c3                   	ret    
  4051da:	66 0f 1f 44 00 00    	nopw   0x0(%rax,%rax,1)
  4051e0:	48 8d 95 18 01 00 00 	lea    0x118(%rbp),%rdx
  4051e7:	4c 8d 44 24 20       	lea    0x20(%rsp),%r8
  4051ec:	b9 03 00 00 00       	mov    $0x3,%ecx
  4051f1:	48 89 ee             	mov    %rbp,%rsi
  4051f4:	48 8d 7c 24 40       	lea    0x40(%rsp),%rdi
  4051f9:	ff 15 b1 91 00 00    	call   *0x91b1(%rip)        # 40e3b0 <stderr@GLIBC_2.2.5+0x108>
  4051ff:	c7 85 10 01 00 00 01 	movl   $0x1,0x110(%rbp)
  405206:	00 00 00 
  405209:	e9 7b ff ff ff       	jmp    405189 <dlerror@plt+0x2c69>
  40520e:	66 90                	xchg   %ax,%ax
  405210:	48 8d 95 38 01 00 00 	lea    0x138(%rbp),%rdx
  405217:	4c 8d 44 24 20       	lea    0x20(%rsp),%r8
  40521c:	b9 03 00 00 00       	mov    $0x3,%ecx
  405221:	48 89 ee             	mov    %rbp,%rsi
  405224:	48 8d 7c 24 40       	lea    0x40(%rsp),%rdi
  405229:	ff 15 81 91 00 00    	call   *0x9181(%rip)        # 40e3b0 <stderr@GLIBC_2.2.5+0x108>
  40522f:	c7 85 30 01 00 00 01 	movl   $0x1,0x130(%rbp)
  405236:	00 00 00 
  405239:	e9 4b ff ff ff       	jmp    405189 <dlerror@plt+0x2c69>
  40523e:	66 90                	xchg   %ax,%ax
  405240:	48 8d 95 30 01 00 00 	lea    0x130(%rbp),%rdx
  405247:	4c 8d 44 24 20       	lea    0x20(%rsp),%r8
  40524c:	b9 03 00 00 00       	mov    $0x3,%ecx
  405251:	48 89 ee             	mov    %rbp,%rsi
  405254:	48 8d 7c 24 40       	lea    0x40(%rsp),%rdi
  405259:	ff 15 51 91 00 00    	call   *0x9151(%rip)        # 40e3b0 <stderr@GLIBC_2.2.5+0x108>
  40525f:	c7 85 28 01 00 00 01 	movl   $0x1,0x128(%rbp)
  405266:	00 00 00 
  405269:	e9 1b ff ff ff       	jmp    405189 <dlerror@plt+0x2c69>
  40526e:	41 bc ff ff ff ff    	mov    $0xffffffff,%r12d
  405274:	e9 52 ff ff ff       	jmp    4051cb <dlerror@plt+0x2cab>
  405279:	0f 1f 80 00 00 00 00 	nopl   0x0(%rax)
  405280:	41 56                	push   %r14
  405282:	49 89 fe             	mov    %rdi,%r14
  405285:	41 55                	push   %r13
  405287:	41 54                	push   %r12
  405289:	55                   	push   %rbp
  40528a:	48 89 f5             	mov    %rsi,%rbp
  40528d:	53                   	push   %rbx
  40528e:	48 83 ec 20          	sub    $0x20,%rsp
  405292:	4c 63 ae 7c 50 00 00 	movslq 0x507c(%rsi),%r13
  405299:	be 08 00 00 00       	mov    $0x8,%esi
  40529e:	4c 89 ef             	mov    %r13,%rdi
  4052a1:	e8 ca cf ff ff       	call   402270 <calloc@plt>
  4052a6:	48 85 c0             	test   %rax,%rax
  4052a9:	0f 84 1c 01 00 00    	je     4053cb <dlerror@plt+0x2eab>
  4052af:	49 89 c4             	mov    %rax,%r12
  4052b2:	45 85 ed             	test   %r13d,%r13d
  4052b5:	0f 8e f5 00 00 00    	jle    4053b0 <dlerror@plt+0x2e90>
  4052bb:	31 db                	xor    %ebx,%ebx
  4052bd:	0f 1f 00             	nopl   (%rax)
  4052c0:	48 8b 85 80 50 00 00 	mov    0x5080(%rbp),%rax
  4052c7:	31 f6                	xor    %esi,%esi
  4052c9:	48 8b 3c d8          	mov    (%rax,%rbx,8),%rdi
  4052cd:	ff 15 35 91 00 00    	call   *0x9135(%rip)        # 40e408 <stderr@GLIBC_2.2.5+0x160>
  4052d3:	8b 8d 7c 50 00 00    	mov    0x507c(%rbp),%ecx
  4052d9:	49 89 04 dc          	mov    %rax,(%r12,%rbx,8)
  4052dd:	48 83 c3 01          	add    $0x1,%rbx
  4052e1:	39 d9                	cmp    %ebx,%ecx
  4052e3:	7f db                	jg     4052c0 <dlerror@plt+0x2da0>
  4052e5:	8b 05 c9 8f 00 00    	mov    0x8fc9(%rip),%eax        # 40e2b4 <stderr@GLIBC_2.2.5+0xc>
  4052eb:	2d 34 01 00 00       	sub    $0x134,%eax
  4052f0:	83 f8 04             	cmp    $0x4,%eax
  4052f3:	0f 87 59 d2 ff ff    	ja     402552 <dlerror@plt+0x32>
  4052f9:	4c 63 e9             	movslq %ecx,%r13
  4052fc:	ff 24 c5 c0 99 40 00 	jmp    *0x4099c0(,%rax,8)
  405303:	0f 1f 44 00 00       	nopl   0x0(%rax,%rax,1)
  405308:	49 8d 56 60          	lea    0x60(%r14),%rdx
  40530c:	48 89 e7             	mov    %rsp,%rdi
  40530f:	4c 89 e9             	mov    %r13,%rcx
  405312:	4d 89 e0             	mov    %r12,%r8
  405315:	4c 89 f6             	mov    %r14,%rsi
  405318:	ff 15 92 90 00 00    	call   *0x9092(%rip)        # 40e3b0 <stderr@GLIBC_2.2.5+0x108>
  40531e:	ff 74 24 18          	push   0x18(%rsp)
  405322:	45 31 ed             	xor    %r13d,%r13d
  405325:	ff 74 24 18          	push   0x18(%rsp)
  405329:	ff 74 24 18          	push   0x18(%rsp)
  40532d:	ff 74 24 18          	push   0x18(%rsp)
  405331:	ff 15 c9 8f 00 00    	call   *0x8fc9(%rip)        # 40e300 <stderr@GLIBC_2.2.5+0x58>
  405337:	8b 8d 7c 50 00 00    	mov    0x507c(%rbp),%ecx
  40533d:	48 83 c4 20          	add    $0x20,%rsp
  405341:	85 c0                	test   %eax,%eax
  405343:	41 0f 95 c5          	setne  %r13b
  405347:	41 f7 dd             	neg    %r13d
  40534a:	85 c9                	test   %ecx,%ecx
  40534c:	7e 18                	jle    405366 <dlerror@plt+0x2e46>
  40534e:	31 db                	xor    %ebx,%ebx
  405350:	49 8b 3c dc          	mov    (%r12,%rbx,8),%rdi
  405354:	48 83 c3 01          	add    $0x1,%rbx
  405358:	ff 15 ea 8f 00 00    	call   *0x8fea(%rip)        # 40e348 <stderr@GLIBC_2.2.5+0xa0>
  40535e:	39 9d 7c 50 00 00    	cmp    %ebx,0x507c(%rbp)
  405364:	7f ea                	jg     405350 <dlerror@plt+0x2e30>
  405366:	4c 89 e7             	mov    %r12,%rdi
  405369:	e8 02 cd ff ff       	call   402070 <free@plt>
  40536e:	48 83 c4 20          	add    $0x20,%rsp
  405372:	44 89 e8             	mov    %r13d,%eax
  405375:	5b                   	pop    %rbx
  405376:	5d                   	pop    %rbp
  405377:	41 5c                	pop    %r12
  405379:	41 5d                	pop    %r13
  40537b:	41 5e                	pop    %r14
  40537d:	c3                   	ret    
  40537e:	66 90                	xchg   %ax,%ax
  405380:	49 8d 56 78          	lea    0x78(%r14),%rdx
  405384:	eb 86                	jmp    40530c <dlerror@plt+0x2dec>
  405386:	66 2e 0f 1f 84 00 00 	cs nopw 0x0(%rax,%rax,1)
  40538d:	00 00 00 
  405390:	49 8d 56 68          	lea    0x68(%r14),%rdx
  405394:	e9 73 ff ff ff       	jmp    40530c <dlerror@plt+0x2dec>
  405399:	0f 1f 80 00 00 00 00 	nopl   0x0(%rax)
  4053a0:	49 8d 96 80 00 00 00 	lea    0x80(%r14),%rdx
  4053a7:	e9 60 ff ff ff       	jmp    40530c <dlerror@plt+0x2dec>
  4053ac:	0f 1f 40 00          	nopl   0x0(%rax)
  4053b0:	8b 05 fe 8e 00 00    	mov    0x8efe(%rip),%eax        # 40e2b4 <stderr@GLIBC_2.2.5+0xc>
  4053b6:	2d 34 01 00 00       	sub    $0x134,%eax
  4053bb:	83 f8 04             	cmp    $0x4,%eax
  4053be:	0f 87 85 d1 ff ff    	ja     402549 <dlerror@plt+0x29>
  4053c4:	ff 24 c5 e8 99 40 00 	jmp    *0x4099e8(,%rax,8)
  4053cb:	41 83 cd ff          	or     $0xffffffff,%r13d
  4053cf:	eb 9d                	jmp    40536e <dlerror@plt+0x2e4e>
  4053d1:	66 66 2e 0f 1f 84 00 	data16 cs nopw 0x0(%rax,%rax,1)
  4053d8:	00 00 00 00 
  4053dc:	0f 1f 40 00          	nopl   0x0(%rax)
  4053e0:	55                   	push   %rbp
  4053e1:	53                   	push   %rbx
  4053e2:	48 83 ec 28          	sub    $0x28,%rsp
  4053e6:	8b 05 c8 8e 00 00    	mov    0x8ec8(%rip),%eax        # 40e2b4 <stderr@GLIBC_2.2.5+0xc>
  4053ec:	2d 34 01 00 00       	sub    $0x134,%eax
  4053f1:	83 f8 04             	cmp    $0x4,%eax
  4053f4:	0f 87 61 d1 ff ff    	ja     40255b <dlerror@plt+0x3b>
  4053fa:	48 89 fb             	mov    %rdi,%rbx
  4053fd:	48 89 f5             	mov    %rsi,%rbp
  405400:	ff 24 c5 10 9a 40 00 	jmp    *0x409a10(,%rax,8)
  405407:	66 0f 1f 84 00 00 00 	nopw   0x0(%rax,%rax,1)
  40540e:	00 00 
  405410:	8b 46 08             	mov    0x8(%rsi),%eax
  405413:	8b 4e 04             	mov    0x4(%rsi),%ecx
  405416:	c7 87 a8 00 00 00 00 	movl   $0x0,0xa8(%rdi)
  40541d:	00 00 00 
  405420:	c7 87 c4 00 00 00 00 	movl   $0x0,0xc4(%rdi)
  405427:	00 00 00 
  40542a:	89 87 bc 00 00 00    	mov    %eax,0xbc(%rdi)
  405430:	31 c0                	xor    %eax,%eax
  405432:	85 c9                	test   %ecx,%ecx
  405434:	48 63 4e 20          	movslq 0x20(%rsi),%rcx
  405438:	c7 87 d4 00 00 00 01 	movl   $0x1,0xd4(%rdi)
  40543f:	00 00 00 
  405442:	0f 94 c0             	sete   %al
  405445:	89 87 d8 00 00 00    	mov    %eax,0xd8(%rdi)
  40544b:	8b 06                	mov    (%rsi),%eax
  40544d:	89 87 c8 00 00 00    	mov    %eax,0xc8(%rdi)
  405453:	8b 46 0c             	mov    0xc(%rsi),%eax
  405456:	89 47 14             	mov    %eax,0x14(%rdi)
  405459:	48 8b 46 10          	mov    0x10(%rsi),%rax
  40545d:	48 89 47 18          	mov    %rax,0x18(%rdi)
  405461:	8b 46 1c             	mov    0x1c(%rsi),%eax
  405464:	89 47 0c             	mov    %eax,0xc(%rdi)
  405467:	85 c9                	test   %ecx,%ecx
  405469:	74 39                	je     4054a4 <dlerror@plt+0x2f84>
  40546b:	4c 8b 46 28          	mov    0x28(%rsi),%r8
  40546f:	48 8d 97 98 00 00 00 	lea    0x98(%rdi),%rdx
  405476:	48 89 fe             	mov    %rdi,%rsi
  405479:	48 89 e7             	mov    %rsp,%rdi
  40547c:	ff 15 2e 8f 00 00    	call   *0x8f2e(%rip)        # 40e3b0 <stderr@GLIBC_2.2.5+0x108>
  405482:	ff 74 24 18          	push   0x18(%rsp)
  405486:	ff 74 24 18          	push   0x18(%rsp)
  40548a:	ff 74 24 18          	push   0x18(%rsp)
  40548e:	ff 74 24 18          	push   0x18(%rsp)
  405492:	ff 15 68 8e 00 00    	call   *0x8e68(%rip)        # 40e300 <stderr@GLIBC_2.2.5+0x58>
  405498:	48 83 c4 20          	add    $0x20,%rsp
  40549c:	85 c0                	test   %eax,%eax
  40549e:	0f 85 1c 04 00 00    	jne    4058c0 <dlerror@plt+0x33a0>
  4054a4:	48 63 4d 30          	movslq 0x30(%rbp),%rcx
  4054a8:	85 c9                	test   %ecx,%ecx
  4054aa:	74 39                	je     4054e5 <dlerror@plt+0x2fc5>
  4054ac:	48 89 e7             	mov    %rsp,%rdi
  4054af:	4c 8b 45 38          	mov    0x38(%rbp),%r8
  4054b3:	48 8d 93 88 00 00 00 	lea    0x88(%rbx),%rdx
  4054ba:	48 89 de             	mov    %rbx,%rsi
  4054bd:	ff 15 ed 8e 00 00    	call   *0x8eed(%rip)        # 40e3b0 <stderr@GLIBC_2.2.5+0x108>
  4054c3:	ff 74 24 18          	push   0x18(%rsp)
  4054c7:	ff 74 24 18          	push   0x18(%rsp)
  4054cb:	ff 74 24 18          	push   0x18(%rsp)
  4054cf:	ff 74 24 18          	push   0x18(%rsp)
  4054d3:	ff 15 27 8e 00 00    	call   *0x8e27(%rip)        # 40e300 <stderr@GLIBC_2.2.5+0x58>
  4054d9:	48 83 c4 20          	add    $0x20,%rsp
  4054dd:	85 c0                	test   %eax,%eax
  4054df:	0f 85 db 03 00 00    	jne    4058c0 <dlerror@plt+0x33a0>
  4054e5:	c7 43 10 01 00 00 00 	movl   $0x1,0x10(%rbx)
  4054ec:	48 83 c4 28          	add    $0x28,%rsp
  4054f0:	31 c0                	xor    %eax,%eax
  4054f2:	5b                   	pop    %rbx
  4054f3:	5d                   	pop    %rbp
  4054f4:	c3                   	ret    
  4054f5:	0f 1f 00             	nopl   (%rax)
  4054f8:	8b 46 08             	mov    0x8(%rsi),%eax
  4054fb:	8b 56 04             	mov    0x4(%rsi),%edx
  4054fe:	c7 87 b0 00 00 00 00 	movl   $0x0,0xb0(%rdi)
  405505:	00 00 00 
  405508:	c7 87 cc 00 00 00 00 	movl   $0x0,0xcc(%rdi)
  40550f:	00 00 00 
  405512:	48 63 4e 20          	movslq 0x20(%rsi),%rcx
  405516:	89 87 c4 00 00 00    	mov    %eax,0xc4(%rdi)
  40551c:	31 c0                	xor    %eax,%eax
  40551e:	85 d2                	test   %edx,%edx
  405520:	c7 87 dc 00 00 00 01 	movl   $0x1,0xdc(%rdi)
  405527:	00 00 00 
  40552a:	0f 94 c0             	sete   %al
  40552d:	89 87 e0 00 00 00    	mov    %eax,0xe0(%rdi)
  405533:	8b 06                	mov    (%rsi),%eax
  405535:	89 87 d0 00 00 00    	mov    %eax,0xd0(%rdi)
  40553b:	8b 46 0c             	mov    0xc(%rsi),%eax
  40553e:	89 47 14             	mov    %eax,0x14(%rdi)
  405541:	48 8b 46 10          	mov    0x10(%rsi),%rax
  405545:	48 89 47 18          	mov    %rax,0x18(%rdi)
  405549:	8b 46 1c             	mov    0x1c(%rsi),%eax
  40554c:	89 47 0c             	mov    %eax,0xc(%rdi)
  40554f:	85 c9                	test   %ecx,%ecx
  405551:	74 39                	je     40558c <dlerror@plt+0x306c>
  405553:	4c 8b 46 28          	mov    0x28(%rsi),%r8
  405557:	48 8d 97 a0 00 00 00 	lea    0xa0(%rdi),%rdx
  40555e:	48 89 fe             	mov    %rdi,%rsi
  405561:	48 89 e7             	mov    %rsp,%rdi
  405564:	ff 15 46 8e 00 00    	call   *0x8e46(%rip)        # 40e3b0 <stderr@GLIBC_2.2.5+0x108>
  40556a:	ff 74 24 18          	push   0x18(%rsp)
  40556e:	ff 74 24 18          	push   0x18(%rsp)
  405572:	ff 74 24 18          	push   0x18(%rsp)
  405576:	ff 74 24 18          	push   0x18(%rsp)
  40557a:	ff 15 80 8d 00 00    	call   *0x8d80(%rip)        # 40e300 <stderr@GLIBC_2.2.5+0x58>
  405580:	48 83 c4 20          	add    $0x20,%rsp
  405584:	85 c0                	test   %eax,%eax
  405586:	0f 85 44 03 00 00    	jne    4058d0 <dlerror@plt+0x33b0>
  40558c:	48 63 4d 30          	movslq 0x30(%rbp),%rcx
  405590:	85 c9                	test   %ecx,%ecx
  405592:	74 39                	je     4055cd <dlerror@plt+0x30ad>
  405594:	48 89 e7             	mov    %rsp,%rdi
  405597:	4c 8b 45 38          	mov    0x38(%rbp),%r8
  40559b:	48 8d 93 90 00 00 00 	lea    0x90(%rbx),%rdx
  4055a2:	48 89 de             	mov    %rbx,%rsi
  4055a5:	ff 15 05 8e 00 00    	call   *0x8e05(%rip)        # 40e3b0 <stderr@GLIBC_2.2.5+0x108>
  4055ab:	ff 74 24 18          	push   0x18(%rsp)
  4055af:	ff 74 24 18          	push   0x18(%rsp)
  4055b3:	ff 74 24 18          	push   0x18(%rsp)
  4055b7:	ff 74 24 18          	push   0x18(%rsp)
  4055bb:	ff 15 3f 8d 00 00    	call   *0x8d3f(%rip)        # 40e300 <stderr@GLIBC_2.2.5+0x58>
  4055c1:	48 83 c4 20          	add    $0x20,%rsp
  4055c5:	85 c0                	test   %eax,%eax
  4055c7:	0f 85 03 03 00 00    	jne    4058d0 <dlerror@plt+0x33b0>
  4055cd:	c7 43 10 01 00 00 00 	movl   $0x1,0x10(%rbx)
  4055d4:	48 83 c4 28          	add    $0x28,%rsp
  4055d8:	31 c0                	xor    %eax,%eax
  4055da:	5b                   	pop    %rbx
  4055db:	5d                   	pop    %rbp
  4055dc:	c3                   	ret    
  4055dd:	0f 1f 00             	nopl   (%rax)
  4055e0:	8b 46 08             	mov    0x8(%rsi),%eax
  4055e3:	48 63 4e 20          	movslq 0x20(%rsi),%rcx
  4055e7:	c7 87 98 00 00 00 00 	movl   $0x0,0x98(%rdi)
  4055ee:	00 00 00 
  4055f1:	c7 87 b0 00 00 00 00 	movl   $0x0,0xb0(%rdi)
  4055f8:	00 00 00 
  4055fb:	89 87 a8 00 00 00    	mov    %eax,0xa8(%rdi)
  405601:	31 c0                	xor    %eax,%eax
  405603:	c7 87 c0 00 00 00 01 	movl   $0x1,0xc0(%rdi)
  40560a:	00 00 00 
  40560d:	8b 7e 04             	mov    0x4(%rsi),%edi
  405610:	85 ff                	test   %edi,%edi
  405612:	0f 94 c0             	sete   %al
  405615:	89 83 c4 00 00 00    	mov    %eax,0xc4(%rbx)
  40561b:	8b 06                	mov    (%rsi),%eax
  40561d:	89 83 b4 00 00 00    	mov    %eax,0xb4(%rbx)
  405623:	8b 46 0c             	mov    0xc(%rsi),%eax
  405626:	89 43 14             	mov    %eax,0x14(%rbx)
  405629:	48 8b 46 10          	mov    0x10(%rsi),%rax
  40562d:	48 89 43 18          	mov    %rax,0x18(%rbx)
  405631:	8b 46 1c             	mov    0x1c(%rsi),%eax
  405634:	89 43 0c             	mov    %eax,0xc(%rbx)
  405637:	85 c9                	test   %ecx,%ecx
  405639:	74 39                	je     405674 <dlerror@plt+0x3154>
  40563b:	48 89 e7             	mov    %rsp,%rdi
  40563e:	4c 8b 46 28          	mov    0x28(%rsi),%r8
  405642:	48 8d 93 88 00 00 00 	lea    0x88(%rbx),%rdx
  405649:	48 89 de             	mov    %rbx,%rsi
  40564c:	ff 15 5e 8d 00 00    	call   *0x8d5e(%rip)        # 40e3b0 <stderr@GLIBC_2.2.5+0x108>
  405652:	ff 74 24 18          	push   0x18(%rsp)
  405656:	ff 74 24 18          	push   0x18(%rsp)
  40565a:	ff 74 24 18          	push   0x18(%rsp)
  40565e:	ff 74 24 18          	push   0x18(%rsp)
  405662:	ff 15 98 8c 00 00    	call   *0x8c98(%rip)        # 40e300 <stderr@GLIBC_2.2.5+0x58>
  405668:	48 83 c4 20          	add    $0x20,%rsp
  40566c:	85 c0                	test   %eax,%eax
  40566e:	0f 85 1c 02 00 00    	jne    405890 <dlerror@plt+0x3370>
  405674:	48 63 4d 30          	movslq 0x30(%rbp),%rcx
  405678:	85 c9                	test   %ecx,%ecx
  40567a:	74 36                	je     4056b2 <dlerror@plt+0x3192>
  40567c:	48 89 e7             	mov    %rsp,%rdi
  40567f:	4c 8b 45 38          	mov    0x38(%rbp),%r8
  405683:	48 8d 53 78          	lea    0x78(%rbx),%rdx
  405687:	48 89 de             	mov    %rbx,%rsi
  40568a:	ff 15 20 8d 00 00    	call   *0x8d20(%rip)        # 40e3b0 <stderr@GLIBC_2.2.5+0x108>
  405690:	ff 74 24 18          	push   0x18(%rsp)
  405694:	ff 74 24 18          	push   0x18(%rsp)
  405698:	ff 74 24 18          	push   0x18(%rsp)
  40569c:	ff 74 24 18          	push   0x18(%rsp)
  4056a0:	ff 15 5a 8c 00 00    	call   *0x8c5a(%rip)        # 40e300 <stderr@GLIBC_2.2.5+0x58>
  4056a6:	48 83 c4 20          	add    $0x20,%rsp
  4056aa:	85 c0                	test   %eax,%eax
  4056ac:	0f 85 de 01 00 00    	jne    405890 <dlerror@plt+0x3370>
  4056b2:	c7 43 10 01 00 00 00 	movl   $0x1,0x10(%rbx)
  4056b9:	48 83 c4 28          	add    $0x28,%rsp
  4056bd:	31 c0                	xor    %eax,%eax
  4056bf:	5b                   	pop    %rbx
  4056c0:	5d                   	pop    %rbp
  4056c1:	c3                   	ret    
  4056c2:	66 0f 1f 44 00 00    	nopw   0x0(%rax,%rax,1)
  4056c8:	8b 46 08             	mov    0x8(%rsi),%eax
  4056cb:	44 8b 46 04          	mov    0x4(%rsi),%r8d
  4056cf:	c7 87 98 00 00 00 00 	movl   $0x0,0x98(%rdi)
  4056d6:	00 00 00 
  4056d9:	c7 87 b0 00 00 00 00 	movl   $0x0,0xb0(%rdi)
  4056e0:	00 00 00 
  4056e3:	48 63 4e 20          	movslq 0x20(%rsi),%rcx
  4056e7:	89 87 a8 00 00 00    	mov    %eax,0xa8(%rdi)
  4056ed:	31 c0                	xor    %eax,%eax
  4056ef:	45 85 c0             	test   %r8d,%r8d
  4056f2:	c7 87 c0 00 00 00 01 	movl   $0x1,0xc0(%rdi)
  4056f9:	00 00 00 
  4056fc:	0f 94 c0             	sete   %al
  4056ff:	89 87 c4 00 00 00    	mov    %eax,0xc4(%rdi)
  405705:	8b 06                	mov    (%rsi),%eax
  405707:	89 87 b4 00 00 00    	mov    %eax,0xb4(%rdi)
  40570d:	8b 46 0c             	mov    0xc(%rsi),%eax
  405710:	89 47 14             	mov    %eax,0x14(%rdi)
  405713:	48 8b 46 10          	mov    0x10(%rsi),%rax
  405717:	48 89 47 18          	mov    %rax,0x18(%rdi)
  40571b:	8b 46 1c             	mov    0x1c(%rsi),%eax
  40571e:	89 47 0c             	mov    %eax,0xc(%rdi)
  405721:	85 c9                	test   %ecx,%ecx
  405723:	74 39                	je     40575e <dlerror@plt+0x323e>
  405725:	4c 8b 46 28          	mov    0x28(%rsi),%r8
  405729:	48 8d 97 88 00 00 00 	lea    0x88(%rdi),%rdx
  405730:	48 89 fe             	mov    %rdi,%rsi
  405733:	48 89 e7             	mov    %rsp,%rdi
  405736:	ff 15 74 8c 00 00    	call   *0x8c74(%rip)        # 40e3b0 <stderr@GLIBC_2.2.5+0x108>
  40573c:	ff 74 24 18          	push   0x18(%rsp)
  405740:	ff 74 24 18          	push   0x18(%rsp)
  405744:	ff 74 24 18          	push   0x18(%rsp)
  405748:	ff 74 24 18          	push   0x18(%rsp)
  40574c:	ff 15 ae 8b 00 00    	call   *0x8bae(%rip)        # 40e300 <stderr@GLIBC_2.2.5+0x58>
  405752:	48 83 c4 20          	add    $0x20,%rsp
  405756:	85 c0                	test   %eax,%eax
  405758:	0f 85 52 01 00 00    	jne    4058b0 <dlerror@plt+0x3390>
  40575e:	48 63 4d 30          	movslq 0x30(%rbp),%rcx
  405762:	85 c9                	test   %ecx,%ecx
  405764:	74 36                	je     40579c <dlerror@plt+0x327c>
  405766:	48 89 e7             	mov    %rsp,%rdi
  405769:	4c 8b 45 38          	mov    0x38(%rbp),%r8
  40576d:	48 8d 53 78          	lea    0x78(%rbx),%rdx
  405771:	48 89 de             	mov    %rbx,%rsi
  405774:	ff 15 36 8c 00 00    	call   *0x8c36(%rip)        # 40e3b0 <stderr@GLIBC_2.2.5+0x108>
  40577a:	ff 74 24 18          	push   0x18(%rsp)
  40577e:	ff 74 24 18          	push   0x18(%rsp)
  405782:	ff 74 24 18          	push   0x18(%rsp)
  405786:	ff 74 24 18          	push   0x18(%rsp)
  40578a:	ff 15 70 8b 00 00    	call   *0x8b70(%rip)        # 40e300 <stderr@GLIBC_2.2.5+0x58>
  405790:	48 83 c4 20          	add    $0x20,%rsp
  405794:	85 c0                	test   %eax,%eax
  405796:	0f 85 14 01 00 00    	jne    4058b0 <dlerror@plt+0x3390>
  40579c:	c7 43 10 01 00 00 00 	movl   $0x1,0x10(%rbx)
  4057a3:	48 83 c4 28          	add    $0x28,%rsp
  4057a7:	31 c0                	xor    %eax,%eax
  4057a9:	5b                   	pop    %rbx
  4057aa:	5d                   	pop    %rbp
  4057ab:	c3                   	ret    
  4057ac:	0f 1f 40 00          	nopl   0x0(%rax)
  4057b0:	8b 46 08             	mov    0x8(%rsi),%eax
  4057b3:	8b 76 04             	mov    0x4(%rsi),%esi
  4057b6:	c7 87 98 00 00 00 00 	movl   $0x0,0x98(%rdi)
  4057bd:	00 00 00 
  4057c0:	c7 87 b4 00 00 00 00 	movl   $0x0,0xb4(%rdi)
  4057c7:	00 00 00 
  4057ca:	48 63 4d 20          	movslq 0x20(%rbp),%rcx
  4057ce:	89 87 ac 00 00 00    	mov    %eax,0xac(%rdi)
  4057d4:	31 c0                	xor    %eax,%eax
  4057d6:	85 f6                	test   %esi,%esi
  4057d8:	c7 87 c4 00 00 00 01 	movl   $0x1,0xc4(%rdi)
  4057df:	00 00 00 
  4057e2:	0f 94 c0             	sete   %al
  4057e5:	89 87 c8 00 00 00    	mov    %eax,0xc8(%rdi)
  4057eb:	8b 45 00             	mov    0x0(%rbp),%eax
  4057ee:	89 87 b8 00 00 00    	mov    %eax,0xb8(%rdi)
  4057f4:	8b 45 0c             	mov    0xc(%rbp),%eax
  4057f7:	89 47 14             	mov    %eax,0x14(%rdi)
  4057fa:	48 8b 45 10          	mov    0x10(%rbp),%rax
  4057fe:	48 89 47 18          	mov    %rax,0x18(%rdi)
  405802:	8b 45 1c             	mov    0x1c(%rbp),%eax
  405805:	89 47 0c             	mov    %eax,0xc(%rdi)
  405808:	85 c9                	test   %ecx,%ecx
  40580a:	74 35                	je     405841 <dlerror@plt+0x3321>
  40580c:	48 8d 97 88 00 00 00 	lea    0x88(%rdi),%rdx
  405813:	48 89 fe             	mov    %rdi,%rsi
  405816:	4c 8b 45 28          	mov    0x28(%rbp),%r8
  40581a:	48 89 e7             	mov    %rsp,%rdi
  40581d:	ff 15 8d 8b 00 00    	call   *0x8b8d(%rip)        # 40e3b0 <stderr@GLIBC_2.2.5+0x108>
  405823:	ff 74 24 18          	push   0x18(%rsp)
  405827:	ff 74 24 18          	push   0x18(%rsp)
  40582b:	ff 74 24 18          	push   0x18(%rsp)
  40582f:	ff 74 24 18          	push   0x18(%rsp)
  405833:	ff 15 c7 8a 00 00    	call   *0x8ac7(%rip)        # 40e300 <stderr@GLIBC_2.2.5+0x58>
  405839:	48 83 c4 20          	add    $0x20,%rsp
  40583d:	85 c0                	test   %eax,%eax
  40583f:	75 5f                	jne    4058a0 <dlerror@plt+0x3380>
  405841:	48 63 4d 30          	movslq 0x30(%rbp),%rcx
  405845:	85 c9                	test   %ecx,%ecx
  405847:	74 32                	je     40587b <dlerror@plt+0x335b>
  405849:	48 89 e7             	mov    %rsp,%rdi
  40584c:	4c 8b 45 38          	mov    0x38(%rbp),%r8
  405850:	48 8d 53 78          	lea    0x78(%rbx),%rdx
  405854:	48 89 de             	mov    %rbx,%rsi
  405857:	ff 15 53 8b 00 00    	call   *0x8b53(%rip)        # 40e3b0 <stderr@GLIBC_2.2.5+0x108>
  40585d:	ff 74 24 18          	push   0x18(%rsp)
  405861:	ff 74 24 18          	push   0x18(%rsp)
  405865:	ff 74 24 18          	push   0x18(%rsp)
  405869:	ff 74 24 18          	push   0x18(%rsp)
  40586d:	ff 15 8d 8a 00 00    	call   *0x8a8d(%rip)        # 40e300 <stderr@GLIBC_2.2.5+0x58>
  405873:	48 83 c4 20          	add    $0x20,%rsp
  405877:	85 c0                	test   %eax,%eax
  405879:	75 25                	jne    4058a0 <dlerror@plt+0x3380>
  40587b:	c7 43 10 01 00 00 00 	movl   $0x1,0x10(%rbx)
  405882:	31 c0                	xor    %eax,%eax
  405884:	48 83 c4 28          	add    $0x28,%rsp
  405888:	5b                   	pop    %rbx
  405889:	5d                   	pop    %rbp
  40588a:	c3                   	ret    
  40588b:	0f 1f 44 00 00       	nopl   0x0(%rax,%rax,1)
  405890:	b8 ff ff ff ff       	mov    $0xffffffff,%eax
  405895:	eb ed                	jmp    405884 <dlerror@plt+0x3364>
  405897:	66 0f 1f 84 00 00 00 	nopw   0x0(%rax,%rax,1)
  40589e:	00 00 
  4058a0:	b8 ff ff ff ff       	mov    $0xffffffff,%eax
  4058a5:	eb dd                	jmp    405884 <dlerror@plt+0x3364>
  4058a7:	66 0f 1f 84 00 00 00 	nopw   0x0(%rax,%rax,1)
  4058ae:	00 00 
  4058b0:	b8 ff ff ff ff       	mov    $0xffffffff,%eax
  4058b5:	eb cd                	jmp    405884 <dlerror@plt+0x3364>
  4058b7:	66 0f 1f 84 00 00 00 	nopw   0x0(%rax,%rax,1)
  4058be:	00 00 
  4058c0:	b8 ff ff ff ff       	mov    $0xffffffff,%eax
  4058c5:	eb bd                	jmp    405884 <dlerror@plt+0x3364>
  4058c7:	66 0f 1f 84 00 00 00 	nopw   0x0(%rax,%rax,1)
  4058ce:	00 00 
  4058d0:	b8 ff ff ff ff       	mov    $0xffffffff,%eax
  4058d5:	eb ad                	jmp    405884 <dlerror@plt+0x3364>
  4058d7:	66 0f 1f 84 00 00 00 	nopw   0x0(%rax,%rax,1)
  4058de:	00 00 
  4058e0:	53                   	push   %rbx
  4058e1:	48 89 fb             	mov    %rdi,%rbx
  4058e4:	48 83 ec 50          	sub    $0x50,%rsp
  4058e8:	48 8d 7c 24 20       	lea    0x20(%rsp),%rdi
  4058ed:	ff 15 1d 8a 00 00    	call   *0x8a1d(%rip)        # 40e310 <stderr@GLIBC_2.2.5+0x68>
  4058f3:	48 8b 43 18          	mov    0x18(%rbx),%rax
  4058f7:	48 8d 74 24 20       	lea    0x20(%rsp),%rsi
  4058fc:	48 89 e7             	mov    %rsp,%rdi
  4058ff:	48 89 44 24 3c       	mov    %rax,0x3c(%rsp)
  405904:	ff 15 d6 8a 00 00    	call   *0x8ad6(%rip)        # 40e3e0 <stderr@GLIBC_2.2.5+0x138>
  40590a:	ff 74 24 18          	push   0x18(%rsp)
  40590e:	ff 74 24 18          	push   0x18(%rsp)
  405912:	ff 74 24 18          	push   0x18(%rsp)
  405916:	ff 74 24 18          	push   0x18(%rsp)
  40591a:	ff 15 e0 89 00 00    	call   *0x89e0(%rip)        # 40e300 <stderr@GLIBC_2.2.5+0x58>
  405920:	85 c0                	test   %eax,%eax
  405922:	0f 95 c0             	setne  %al
  405925:	48 83 c4 70          	add    $0x70,%rsp
  405929:	0f b6 c0             	movzbl %al,%eax
  40592c:	5b                   	pop    %rbx
  40592d:	f7 d8                	neg    %eax
  40592f:	c3                   	ret    
  405930:	55                   	push   %rbp
  405931:	be 38 9a 40 00       	mov    $0x409a38,%esi
  405936:	48 89 fd             	mov    %rdi,%rbp
  405939:	e8 c2 cb ff ff       	call   402500 <dlsym@plt>
  40593e:	48 89 05 cb 8a 00 00 	mov    %rax,0x8acb(%rip)        # 40e410 <stderr@GLIBC_2.2.5+0x168>
  405945:	48 85 c0             	test   %rax,%rax
  405948:	0f 84 e3 04 00 00    	je     405e31 <dlerror@plt+0x3911>
  40594e:	be 5e 9a 40 00       	mov    $0x409a5e,%esi
  405953:	48 89 ef             	mov    %rbp,%rdi
  405956:	e8 a5 cb ff ff       	call   402500 <dlsym@plt>
  40595b:	48 89 05 a6 8a 00 00 	mov    %rax,0x8aa6(%rip)        # 40e408 <stderr@GLIBC_2.2.5+0x160>
  405962:	48 85 c0             	test   %rax,%rax
  405965:	0f 84 e8 04 00 00    	je     405e53 <dlerror@plt+0x3933>
  40596b:	be 6e 9a 40 00       	mov    $0x409a6e,%esi
  405970:	48 89 ef             	mov    %rbp,%rdi
  405973:	e8 88 cb ff ff       	call   402500 <dlsym@plt>
  405978:	48 89 05 81 8a 00 00 	mov    %rax,0x8a81(%rip)        # 40e400 <stderr@GLIBC_2.2.5+0x158>
  40597f:	48 85 c0             	test   %rax,%rax
  405982:	0f 84 ba 04 00 00    	je     405e42 <dlerror@plt+0x3922>
  405988:	be 85 9a 40 00       	mov    $0x409a85,%esi
  40598d:	48 89 ef             	mov    %rbp,%rdi
  405990:	e8 6b cb ff ff       	call   402500 <dlsym@plt>
  405995:	48 89 05 5c 8a 00 00 	mov    %rax,0x8a5c(%rip)        # 40e3f8 <stderr@GLIBC_2.2.5+0x150>
  40599c:	48 85 c0             	test   %rax,%rax
  40599f:	0f 84 d0 04 00 00    	je     405e75 <dlerror@plt+0x3955>
  4059a5:	be af 9a 40 00       	mov    $0x409aaf,%esi
  4059aa:	48 89 ef             	mov    %rbp,%rdi
  4059ad:	e8 4e cb ff ff       	call   402500 <dlsym@plt>
  4059b2:	48 89 05 37 8a 00 00 	mov    %rax,0x8a37(%rip)        # 40e3f0 <stderr@GLIBC_2.2.5+0x148>
  4059b9:	48 85 c0             	test   %rax,%rax
  4059bc:	0f 84 a2 04 00 00    	je     405e64 <dlerror@plt+0x3944>
  4059c2:	be c7 9a 40 00       	mov    $0x409ac7,%esi
  4059c7:	48 89 ef             	mov    %rbp,%rdi
  4059ca:	e8 31 cb ff ff       	call   402500 <dlsym@plt>
  4059cf:	48 89 05 12 8a 00 00 	mov    %rax,0x8a12(%rip)        # 40e3e8 <stderr@GLIBC_2.2.5+0x140>
  4059d6:	48 85 c0             	test   %rax,%rax
  4059d9:	0f 84 c9 04 00 00    	je     405ea8 <dlerror@plt+0x3988>
  4059df:	be d8 9a 40 00       	mov    $0x409ad8,%esi
  4059e4:	48 89 ef             	mov    %rbp,%rdi
  4059e7:	e8 14 cb ff ff       	call   402500 <dlsym@plt>
  4059ec:	48 89 05 ed 89 00 00 	mov    %rax,0x89ed(%rip)        # 40e3e0 <stderr@GLIBC_2.2.5+0x138>
  4059f3:	48 85 c0             	test   %rax,%rax
  4059f6:	0f 84 9b 04 00 00    	je     405e97 <dlerror@plt+0x3977>
  4059fc:	be e9 9a 40 00       	mov    $0x409ae9,%esi
  405a01:	48 89 ef             	mov    %rbp,%rdi
  405a04:	e8 f7 ca ff ff       	call   402500 <dlsym@plt>
  405a09:	48 89 05 c8 89 00 00 	mov    %rax,0x89c8(%rip)        # 40e3d8 <stderr@GLIBC_2.2.5+0x130>
  405a10:	48 85 c0             	test   %rax,%rax
  405a13:	0f 84 6d 04 00 00    	je     405e86 <dlerror@plt+0x3966>
  405a19:	be f8 9a 40 00       	mov    $0x409af8,%esi
  405a1e:	48 89 ef             	mov    %rbp,%rdi
  405a21:	e8 da ca ff ff       	call   402500 <dlsym@plt>
  405a26:	48 89 05 a3 89 00 00 	mov    %rax,0x89a3(%rip)        # 40e3d0 <stderr@GLIBC_2.2.5+0x128>
  405a2d:	48 85 c0             	test   %rax,%rax
  405a30:	0f 84 83 04 00 00    	je     405eb9 <dlerror@plt+0x3999>
  405a36:	be 14 9b 40 00       	mov    $0x409b14,%esi
  405a3b:	48 89 ef             	mov    %rbp,%rdi
  405a3e:	e8 bd ca ff ff       	call   402500 <dlsym@plt>
  405a43:	48 89 05 7e 89 00 00 	mov    %rax,0x897e(%rip)        # 40e3c8 <stderr@GLIBC_2.2.5+0x120>
  405a4a:	48 85 c0             	test   %rax,%rax
  405a4d:	0f 84 aa 04 00 00    	je     405efd <dlerror@plt+0x39dd>
  405a53:	be 22 9b 40 00       	mov    $0x409b22,%esi
  405a58:	48 89 ef             	mov    %rbp,%rdi
  405a5b:	e8 a0 ca ff ff       	call   402500 <dlsym@plt>
  405a60:	48 89 05 59 89 00 00 	mov    %rax,0x8959(%rip)        # 40e3c0 <stderr@GLIBC_2.2.5+0x118>
  405a67:	48 85 c0             	test   %rax,%rax
  405a6a:	0f 84 7c 04 00 00    	je     405eec <dlerror@plt+0x39cc>
  405a70:	be 3a 9b 40 00       	mov    $0x409b3a,%esi
  405a75:	48 89 ef             	mov    %rbp,%rdi
  405a78:	e8 83 ca ff ff       	call   402500 <dlsym@plt>
  405a7d:	48 89 05 34 89 00 00 	mov    %rax,0x8934(%rip)        # 40e3b8 <stderr@GLIBC_2.2.5+0x110>
  405a84:	48 85 c0             	test   %rax,%rax
  405a87:	0f 84 4e 04 00 00    	je     405edb <dlerror@plt+0x39bb>
  405a8d:	be 4d 9b 40 00       	mov    $0x409b4d,%esi
  405a92:	48 89 ef             	mov    %rbp,%rdi
  405a95:	e8 66 ca ff ff       	call   402500 <dlsym@plt>
  405a9a:	48 89 05 0f 89 00 00 	mov    %rax,0x890f(%rip)        # 40e3b0 <stderr@GLIBC_2.2.5+0x108>
  405aa1:	48 85 c0             	test   %rax,%rax
  405aa4:	0f 84 20 04 00 00    	je     405eca <dlerror@plt+0x39aa>
  405aaa:	be 68 9b 40 00       	mov    $0x409b68,%esi
  405aaf:	48 89 ef             	mov    %rbp,%rdi
  405ab2:	e8 49 ca ff ff       	call   402500 <dlsym@plt>
  405ab7:	48 89 05 ea 88 00 00 	mov    %rax,0x88ea(%rip)        # 40e3a8 <stderr@GLIBC_2.2.5+0x100>
  405abe:	48 85 c0             	test   %rax,%rax
  405ac1:	0f 84 7a 04 00 00    	je     405f41 <dlerror@plt+0x3a21>
  405ac7:	be 92 9b 40 00       	mov    $0x409b92,%esi
  405acc:	48 89 ef             	mov    %rbp,%rdi
  405acf:	e8 2c ca ff ff       	call   402500 <dlsym@plt>
  405ad4:	48 89 05 c5 88 00 00 	mov    %rax,0x88c5(%rip)        # 40e3a0 <stderr@GLIBC_2.2.5+0xf8>
  405adb:	48 85 c0             	test   %rax,%rax
  405ade:	0f 84 4c 04 00 00    	je     405f30 <dlerror@plt+0x3a10>
  405ae4:	be bc 9b 40 00       	mov    $0x409bbc,%esi
  405ae9:	48 89 ef             	mov    %rbp,%rdi
  405aec:	e8 0f ca ff ff       	call   402500 <dlsym@plt>
  405af1:	48 89 05 a0 88 00 00 	mov    %rax,0x88a0(%rip)        # 40e398 <stderr@GLIBC_2.2.5+0xf0>
  405af8:	48 85 c0             	test   %rax,%rax
  405afb:	0f 84 1e 04 00 00    	je     405f1f <dlerror@plt+0x39ff>
  405b01:	be d5 9b 40 00       	mov    $0x409bd5,%esi
  405b06:	48 89 ef             	mov    %rbp,%rdi
  405b09:	e8 f2 c9 ff ff       	call   402500 <dlsym@plt>
  405b0e:	48 89 05 7b 88 00 00 	mov    %rax,0x887b(%rip)        # 40e390 <stderr@GLIBC_2.2.5+0xe8>
  405b15:	48 85 c0             	test   %rax,%rax
  405b18:	0f 84 f0 03 00 00    	je     405f0e <dlerror@plt+0x39ee>
  405b1e:	be e4 9b 40 00       	mov    $0x409be4,%esi
  405b23:	48 89 ef             	mov    %rbp,%rdi
  405b26:	e8 d5 c9 ff ff       	call   402500 <dlsym@plt>
  405b2b:	48 89 05 56 88 00 00 	mov    %rax,0x8856(%rip)        # 40e388 <stderr@GLIBC_2.2.5+0xe0>
  405b32:	48 85 c0             	test   %rax,%rax
  405b35:	0f 84 17 04 00 00    	je     405f52 <dlerror@plt+0x3a32>
  405b3b:	be 0e 9c 40 00       	mov    $0x409c0e,%esi
  405b40:	48 89 ef             	mov    %rbp,%rdi
  405b43:	e8 b8 c9 ff ff       	call   402500 <dlsym@plt>
  405b48:	48 89 05 31 88 00 00 	mov    %rax,0x8831(%rip)        # 40e380 <stderr@GLIBC_2.2.5+0xd8>
  405b4f:	48 85 c0             	test   %rax,%rax
  405b52:	0f 84 0b 04 00 00    	je     405f63 <dlerror@plt+0x3a43>
  405b58:	be 1c 9c 40 00       	mov    $0x409c1c,%esi
  405b5d:	48 89 ef             	mov    %rbp,%rdi
  405b60:	e8 9b c9 ff ff       	call   402500 <dlsym@plt>
  405b65:	48 89 05 0c 88 00 00 	mov    %rax,0x880c(%rip)        # 40e378 <stderr@GLIBC_2.2.5+0xd0>
  405b6c:	48 85 c0             	test   %rax,%rax
  405b6f:	0f 84 10 04 00 00    	je     405f85 <dlerror@plt+0x3a65>
  405b75:	be 2c 9c 40 00       	mov    $0x409c2c,%esi
  405b7a:	48 89 ef             	mov    %rbp,%rdi
  405b7d:	e8 7e c9 ff ff       	call   402500 <dlsym@plt>
  405b82:	48 89 05 e7 87 00 00 	mov    %rax,0x87e7(%rip)        # 40e370 <stderr@GLIBC_2.2.5+0xc8>
  405b89:	48 85 c0             	test   %rax,%rax
  405b8c:	0f 84 e2 03 00 00    	je     405f74 <dlerror@plt+0x3a54>
  405b92:	be 3f 9c 40 00       	mov    $0x409c3f,%esi
  405b97:	48 89 ef             	mov    %rbp,%rdi
  405b9a:	e8 61 c9 ff ff       	call   402500 <dlsym@plt>
  405b9f:	48 89 05 c2 87 00 00 	mov    %rax,0x87c2(%rip)        # 40e368 <stderr@GLIBC_2.2.5+0xc0>
  405ba6:	48 85 c0             	test   %rax,%rax
  405ba9:	0f 84 09 04 00 00    	je     405fb8 <dlerror@plt+0x3a98>
  405baf:	be 57 9c 40 00       	mov    $0x409c57,%esi
  405bb4:	48 89 ef             	mov    %rbp,%rdi
  405bb7:	e8 44 c9 ff ff       	call   402500 <dlsym@plt>
  405bbc:	48 89 05 9d 87 00 00 	mov    %rax,0x879d(%rip)        # 40e360 <stderr@GLIBC_2.2.5+0xb8>
  405bc3:	48 85 c0             	test   %rax,%rax
  405bc6:	0f 84 db 03 00 00    	je     405fa7 <dlerror@plt+0x3a87>
  405bcc:	be 6d 9c 40 00       	mov    $0x409c6d,%esi
  405bd1:	48 89 ef             	mov    %rbp,%rdi
  405bd4:	e8 27 c9 ff ff       	call   402500 <dlsym@plt>
  405bd9:	48 89 05 78 87 00 00 	mov    %rax,0x8778(%rip)        # 40e358 <stderr@GLIBC_2.2.5+0xb0>
  405be0:	48 85 c0             	test   %rax,%rax
  405be3:	0f 84 ad 03 00 00    	je     405f96 <dlerror@plt+0x3a76>
  405be9:	be f8 a0 40 00       	mov    $0x40a0f8,%esi
  405bee:	48 89 ef             	mov    %rbp,%rdi
  405bf1:	e8 0a c9 ff ff       	call   402500 <dlsym@plt>
  405bf6:	48 89 05 53 87 00 00 	mov    %rax,0x8753(%rip)        # 40e350 <stderr@GLIBC_2.2.5+0xa8>
  405bfd:	48 85 c0             	test   %rax,%rax
  405c00:	0f 84 c3 03 00 00    	je     405fc9 <dlerror@plt+0x3aa9>
  405c06:	be 7b 9c 40 00       	mov    $0x409c7b,%esi
  405c0b:	48 89 ef             	mov    %rbp,%rdi
  405c0e:	e8 ed c8 ff ff       	call   402500 <dlsym@plt>
  405c13:	48 89 05 2e 87 00 00 	mov    %rax,0x872e(%rip)        # 40e348 <stderr@GLIBC_2.2.5+0xa0>
  405c1a:	48 85 c0             	test   %rax,%rax
  405c1d:	0f 84 ea 03 00 00    	je     40600d <dlerror@plt+0x3aed>
  405c23:	be 89 9c 40 00       	mov    $0x409c89,%esi
  405c28:	48 89 ef             	mov    %rbp,%rdi
  405c2b:	e8 d0 c8 ff ff       	call   402500 <dlsym@plt>
  405c30:	48 89 05 09 87 00 00 	mov    %rax,0x8709(%rip)        # 40e340 <stderr@GLIBC_2.2.5+0x98>
  405c37:	48 85 c0             	test   %rax,%rax
  405c3a:	0f 84 bc 03 00 00    	je     405ffc <dlerror@plt+0x3adc>
  405c40:	be 9a 9c 40 00       	mov    $0x409c9a,%esi
  405c45:	48 89 ef             	mov    %rbp,%rdi
  405c48:	e8 b3 c8 ff ff       	call   402500 <dlsym@plt>
  405c4d:	48 89 05 e4 86 00 00 	mov    %rax,0x86e4(%rip)        # 40e338 <stderr@GLIBC_2.2.5+0x90>
  405c54:	48 85 c0             	test   %rax,%rax
  405c57:	0f 84 8e 03 00 00    	je     405feb <dlerror@plt+0x3acb>
  405c5d:	be b0 9c 40 00       	mov    $0x409cb0,%esi
  405c62:	48 89 ef             	mov    %rbp,%rdi
  405c65:	e8 96 c8 ff ff       	call   402500 <dlsym@plt>
  405c6a:	48 89 05 bf 86 00 00 	mov    %rax,0x86bf(%rip)        # 40e330 <stderr@GLIBC_2.2.5+0x88>
  405c71:	48 85 c0             	test   %rax,%rax
  405c74:	0f 84 60 03 00 00    	je     405fda <dlerror@plt+0x3aba>
  405c7a:	be cd 9c 40 00       	mov    $0x409ccd,%esi
  405c7f:	48 89 ef             	mov    %rbp,%rdi
  405c82:	e8 79 c8 ff ff       	call   402500 <dlsym@plt>
  405c87:	48 89 05 9a 86 00 00 	mov    %rax,0x869a(%rip)        # 40e328 <stderr@GLIBC_2.2.5+0x80>
  405c8e:	48 85 c0             	test   %rax,%rax
  405c91:	0f 84 ba 03 00 00    	je     406051 <dlerror@plt+0x3b31>
  405c97:	be e4 9c 40 00       	mov    $0x409ce4,%esi
  405c9c:	48 89 ef             	mov    %rbp,%rdi
  405c9f:	e8 5c c8 ff ff       	call   402500 <dlsym@plt>
  405ca4:	48 89 05 75 86 00 00 	mov    %rax,0x8675(%rip)        # 40e320 <stderr@GLIBC_2.2.5+0x78>
  405cab:	48 85 c0             	test   %rax,%rax
  405cae:	0f 84 8c 03 00 00    	je     406040 <dlerror@plt+0x3b20>
  405cb4:	be fb 9c 40 00       	mov    $0x409cfb,%esi
  405cb9:	48 89 ef             	mov    %rbp,%rdi
  405cbc:	e8 3f c8 ff ff       	call   402500 <dlsym@plt>
  405cc1:	48 89 05 50 86 00 00 	mov    %rax,0x8650(%rip)        # 40e318 <stderr@GLIBC_2.2.5+0x70>
  405cc8:	48 85 c0             	test   %rax,%rax
  405ccb:	0f 84 5e 03 00 00    	je     40602f <dlerror@plt+0x3b0f>
  405cd1:	be 70 a2 40 00       	mov    $0x40a270,%esi
  405cd6:	48 89 ef             	mov    %rbp,%rdi
  405cd9:	e8 22 c8 ff ff       	call   402500 <dlsym@plt>
  405cde:	48 89 05 2b 86 00 00 	mov    %rax,0x862b(%rip)        # 40e310 <stderr@GLIBC_2.2.5+0x68>
  405ce5:	48 85 c0             	test   %rax,%rax
  405ce8:	0f 84 30 03 00 00    	je     40601e <dlerror@plt+0x3afe>
  405cee:	be 08 9d 40 00       	mov    $0x409d08,%esi
  405cf3:	48 89 ef             	mov    %rbp,%rdi
  405cf6:	e8 05 c8 ff ff       	call   402500 <dlsym@plt>
  405cfb:	48 89 05 06 86 00 00 	mov    %rax,0x8606(%rip)        # 40e308 <stderr@GLIBC_2.2.5+0x60>
  405d02:	48 85 c0             	test   %rax,%rax
  405d05:	0f 84 68 03 00 00    	je     406073 <dlerror@plt+0x3b53>
  405d0b:	be 20 9d 40 00       	mov    $0x409d20,%esi
  405d10:	48 89 ef             	mov    %rbp,%rdi
  405d13:	e8 e8 c7 ff ff       	call   402500 <dlsym@plt>
  405d18:	48 89 05 e1 85 00 00 	mov    %rax,0x85e1(%rip)        # 40e300 <stderr@GLIBC_2.2.5+0x58>
  405d1f:	48 85 c0             	test   %rax,%rax
  405d22:	0f 84 3a 03 00 00    	je     406062 <dlerror@plt+0x3b42>
  405d28:	be 33 9d 40 00       	mov    $0x409d33,%esi
  405d2d:	48 89 ef             	mov    %rbp,%rdi
  405d30:	e8 cb c7 ff ff       	call   402500 <dlsym@plt>
  405d35:	48 89 05 bc 85 00 00 	mov    %rax,0x85bc(%rip)        # 40e2f8 <stderr@GLIBC_2.2.5+0x50>
  405d3c:	48 85 c0             	test   %rax,%rax
  405d3f:	0f 84 50 03 00 00    	je     406095 <dlerror@plt+0x3b75>
  405d45:	be 43 9d 40 00       	mov    $0x409d43,%esi
  405d4a:	48 89 ef             	mov    %rbp,%rdi
  405d4d:	e8 ae c7 ff ff       	call   402500 <dlsym@plt>
  405d52:	48 89 05 97 85 00 00 	mov    %rax,0x8597(%rip)        # 40e2f0 <stderr@GLIBC_2.2.5+0x48>
  405d59:	48 85 c0             	test   %rax,%rax
  405d5c:	0f 84 22 03 00 00    	je     406084 <dlerror@plt+0x3b64>
  405d62:	be 53 9d 40 00       	mov    $0x409d53,%esi
  405d67:	48 89 ef             	mov    %rbp,%rdi
  405d6a:	e8 91 c7 ff ff       	call   402500 <dlsym@plt>
  405d6f:	48 89 05 72 85 00 00 	mov    %rax,0x8572(%rip)        # 40e2e8 <stderr@GLIBC_2.2.5+0x40>
  405d76:	48 85 c0             	test   %rax,%rax
  405d79:	0f 84 5a 03 00 00    	je     4060d9 <dlerror@plt+0x3bb9>
  405d7f:	be 64 9d 40 00       	mov    $0x409d64,%esi
  405d84:	48 89 ef             	mov    %rbp,%rdi
  405d87:	e8 74 c7 ff ff       	call   402500 <dlsym@plt>
  405d8c:	48 89 05 4d 85 00 00 	mov    %rax,0x854d(%rip)        # 40e2e0 <stderr@GLIBC_2.2.5+0x38>
  405d93:	48 85 c0             	test   %rax,%rax
  405d96:	0f 84 2c 03 00 00    	je     4060c8 <dlerror@plt+0x3ba8>
  405d9c:	be 75 9d 40 00       	mov    $0x409d75,%esi
  405da1:	48 89 ef             	mov    %rbp,%rdi
  405da4:	e8 57 c7 ff ff       	call   402500 <dlsym@plt>
  405da9:	48 89 05 28 85 00 00 	mov    %rax,0x8528(%rip)        # 40e2d8 <stderr@GLIBC_2.2.5+0x30>
  405db0:	48 85 c0             	test   %rax,%rax
  405db3:	0f 84 fe 02 00 00    	je     4060b7 <dlerror@plt+0x3b97>
  405db9:	be 8f 9d 40 00       	mov    $0x409d8f,%esi
  405dbe:	48 89 ef             	mov    %rbp,%rdi
  405dc1:	e8 3a c7 ff ff       	call   402500 <dlsym@plt>
  405dc6:	48 89 05 03 85 00 00 	mov    %rax,0x8503(%rip)        # 40e2d0 <stderr@GLIBC_2.2.5+0x28>
  405dcd:	48 85 c0             	test   %rax,%rax
  405dd0:	0f 84 d0 02 00 00    	je     4060a6 <dlerror@plt+0x3b86>
  405dd6:	be a4 9d 40 00       	mov    $0x409da4,%esi
  405ddb:	48 89 ef             	mov    %rbp,%rdi
  405dde:	e8 1d c7 ff ff       	call   402500 <dlsym@plt>
  405de3:	48 89 05 de 84 00 00 	mov    %rax,0x84de(%rip)        # 40e2c8 <stderr@GLIBC_2.2.5+0x20>
  405dea:	48 85 c0             	test   %rax,%rax
  405ded:	0f 84 08 03 00 00    	je     4060fb <dlerror@plt+0x3bdb>
  405df3:	be b9 9d 40 00       	mov    $0x409db9,%esi
  405df8:	48 89 ef             	mov    %rbp,%rdi
  405dfb:	e8 00 c7 ff ff       	call   402500 <dlsym@plt>
  405e00:	48 89 05 b9 84 00 00 	mov    %rax,0x84b9(%rip)        # 40e2c0 <stderr@GLIBC_2.2.5+0x18>
  405e07:	48 85 c0             	test   %rax,%rax
  405e0a:	0f 84 da 02 00 00    	je     4060ea <dlerror@plt+0x3bca>
  405e10:	be c8 9d 40 00       	mov    $0x409dc8,%esi
  405e15:	48 89 ef             	mov    %rbp,%rdi
  405e18:	e8 e3 c6 ff ff       	call   402500 <dlsym@plt>
  405e1d:	48 89 05 94 84 00 00 	mov    %rax,0x8494(%rip)        # 40e2b8 <stderr@GLIBC_2.2.5+0x10>
  405e24:	48 85 c0             	test   %rax,%rax
  405e27:	0f 84 df 02 00 00    	je     40610c <dlerror@plt+0x3bec>
  405e2d:	31 c0                	xor    %eax,%eax
  405e2f:	5d                   	pop    %rbp
  405e30:	c3                   	ret    
  405e31:	bf 42 9a 40 00       	mov    $0x409a42,%edi
  405e36:	e8 15 d6 ff ff       	call   403450 <dlerror@plt+0xf30>
  405e3b:	b8 ff ff ff ff       	mov    $0xffffffff,%eax
  405e40:	5d                   	pop    %rbp
  405e41:	c3                   	ret    
  405e42:	bf 08 9e 40 00       	mov    $0x409e08,%edi
  405e47:	e8 04 d6 ff ff       	call   403450 <dlerror@plt+0xf30>
  405e4c:	b8 ff ff ff ff       	mov    $0xffffffff,%eax
  405e51:	5d                   	pop    %rbp
  405e52:	c3                   	ret    
  405e53:	bf e0 9d 40 00       	mov    $0x409de0,%edi
  405e58:	e8 f3 d5 ff ff       	call   403450 <dlerror@plt+0xf30>
  405e5d:	b8 ff ff ff ff       	mov    $0xffffffff,%eax
  405e62:	5d                   	pop    %rbp
  405e63:	c3                   	ret    
  405e64:	bf 38 9e 40 00       	mov    $0x409e38,%edi
  405e69:	e8 e2 d5 ff ff       	call   403450 <dlerror@plt+0xf30>
  405e6e:	b8 ff ff ff ff       	mov    $0xffffffff,%eax
  405e73:	5d                   	pop    %rbp
  405e74:	c3                   	ret    
  405e75:	bf 91 9a 40 00       	mov    $0x409a91,%edi
  405e7a:	e8 d1 d5 ff ff       	call   403450 <dlerror@plt+0xf30>
  405e7f:	b8 ff ff ff ff       	mov    $0xffffffff,%eax
  405e84:	5d                   	pop    %rbp
  405e85:	c3                   	ret    
  405e86:	bf b8 9e 40 00       	mov    $0x409eb8,%edi
  405e8b:	e8 c0 d5 ff ff       	call   403450 <dlerror@plt+0xf30>
  405e90:	b8 ff ff ff ff       	mov    $0xffffffff,%eax
  405e95:	5d                   	pop    %rbp
  405e96:	c3                   	ret    
  405e97:	bf 90 9e 40 00       	mov    $0x409e90,%edi
  405e9c:	e8 af d5 ff ff       	call   403450 <dlerror@plt+0xf30>
  405ea1:	b8 ff ff ff ff       	mov    $0xffffffff,%eax
  405ea6:	5d                   	pop    %rbp
  405ea7:	c3                   	ret    
  405ea8:	bf 68 9e 40 00       	mov    $0x409e68,%edi
  405ead:	e8 9e d5 ff ff       	call   403450 <dlerror@plt+0xf30>
  405eb2:	b8 ff ff ff ff       	mov    $0xffffffff,%eax
  405eb7:	5d                   	pop    %rbp
  405eb8:	c3                   	ret    
  405eb9:	bf e0 9e 40 00       	mov    $0x409ee0,%edi
  405ebe:	e8 8d d5 ff ff       	call   403450 <dlerror@plt+0xf30>
  405ec3:	b8 ff ff ff ff       	mov    $0xffffffff,%eax
  405ec8:	5d                   	pop    %rbp
  405ec9:	c3                   	ret    
  405eca:	bf 88 9f 40 00       	mov    $0x409f88,%edi
  405ecf:	e8 7c d5 ff ff       	call   403450 <dlerror@plt+0xf30>
  405ed4:	b8 ff ff ff ff       	mov    $0xffffffff,%eax
  405ed9:	5d                   	pop    %rbp
  405eda:	c3                   	ret    
  405edb:	bf 60 9f 40 00       	mov    $0x409f60,%edi
  405ee0:	e8 6b d5 ff ff       	call   403450 <dlerror@plt+0xf30>
  405ee5:	b8 ff ff ff ff       	mov    $0xffffffff,%eax
  405eea:	5d                   	pop    %rbp
  405eeb:	c3                   	ret    
  405eec:	bf 30 9f 40 00       	mov    $0x409f30,%edi
  405ef1:	e8 5a d5 ff ff       	call   403450 <dlerror@plt+0xf30>
  405ef6:	b8 ff ff ff ff       	mov    $0xffffffff,%eax
  405efb:	5d                   	pop    %rbp
  405efc:	c3                   	ret    
  405efd:	bf 10 9f 40 00       	mov    $0x409f10,%edi
  405f02:	e8 49 d5 ff ff       	call   403450 <dlerror@plt+0xf30>
  405f07:	b8 ff ff ff ff       	mov    $0xffffffff,%eax
  405f0c:	5d                   	pop    %rbp
  405f0d:	c3                   	ret    
  405f0e:	bf e8 9f 40 00       	mov    $0x409fe8,%edi
  405f13:	e8 38 d5 ff ff       	call   403450 <dlerror@plt+0xf30>
  405f18:	b8 ff ff ff ff       	mov    $0xffffffff,%eax
  405f1d:	5d                   	pop    %rbp
  405f1e:	c3                   	ret    
  405f1f:	bf b8 9f 40 00       	mov    $0x409fb8,%edi
  405f24:	e8 27 d5 ff ff       	call   403450 <dlerror@plt+0xf30>
  405f29:	b8 ff ff ff ff       	mov    $0xffffffff,%eax
  405f2e:	5d                   	pop    %rbp
  405f2f:	c3                   	ret    
  405f30:	bf 9e 9b 40 00       	mov    $0x409b9e,%edi
  405f35:	e8 16 d5 ff ff       	call   403450 <dlerror@plt+0xf30>
  405f3a:	b8 ff ff ff ff       	mov    $0xffffffff,%eax
  405f3f:	5d                   	pop    %rbp
  405f40:	c3                   	ret    
  405f41:	bf 74 9b 40 00       	mov    $0x409b74,%edi
  405f46:	e8 05 d5 ff ff       	call   403450 <dlerror@plt+0xf30>
  405f4b:	b8 ff ff ff ff       	mov    $0xffffffff,%eax
  405f50:	5d                   	pop    %rbp
  405f51:	c3                   	ret    
  405f52:	bf f0 9b 40 00       	mov    $0x409bf0,%edi
  405f57:	e8 f4 d4 ff ff       	call   403450 <dlerror@plt+0xf30>
  405f5c:	b8 ff ff ff ff       	mov    $0xffffffff,%eax
  405f61:	5d                   	pop    %rbp
  405f62:	c3                   	ret    
  405f63:	bf 10 a0 40 00       	mov    $0x40a010,%edi
  405f68:	e8 e3 d4 ff ff       	call   403450 <dlerror@plt+0xf30>
  405f6d:	b8 ff ff ff ff       	mov    $0xffffffff,%eax
  405f72:	5d                   	pop    %rbp
  405f73:	c3                   	ret    
  405f74:	bf 58 a0 40 00       	mov    $0x40a058,%edi
  405f79:	e8 d2 d4 ff ff       	call   403450 <dlerror@plt+0xf30>
  405f7e:	b8 ff ff ff ff       	mov    $0xffffffff,%eax
  405f83:	5d                   	pop    %rbp
  405f84:	c3                   	ret    
  405f85:	bf 30 a0 40 00       	mov    $0x40a030,%edi
  405f8a:	e8 c1 d4 ff ff       	call   403450 <dlerror@plt+0xf30>
  405f8f:	b8 ff ff ff ff       	mov    $0xffffffff,%eax
  405f94:	5d                   	pop    %rbp
  405f95:	c3                   	ret    
  405f96:	bf d8 a0 40 00       	mov    $0x40a0d8,%edi
  405f9b:	e8 b0 d4 ff ff       	call   403450 <dlerror@plt+0xf30>
  405fa0:	b8 ff ff ff ff       	mov    $0xffffffff,%eax
  405fa5:	5d                   	pop    %rbp
  405fa6:	c3                   	ret    
  405fa7:	bf b0 a0 40 00       	mov    $0x40a0b0,%edi
  405fac:	e8 9f d4 ff ff       	call   403450 <dlerror@plt+0xf30>
  405fb1:	b8 ff ff ff ff       	mov    $0xffffffff,%eax
  405fb6:	5d                   	pop    %rbp
  405fb7:	c3                   	ret    
  405fb8:	bf 80 a0 40 00       	mov    $0x40a080,%edi
  405fbd:	e8 8e d4 ff ff       	call   403450 <dlerror@plt+0xf30>
  405fc2:	b8 ff ff ff ff       	mov    $0xffffffff,%eax
  405fc7:	5d                   	pop    %rbp
  405fc8:	c3                   	ret    
  405fc9:	bf 18 a1 40 00       	mov    $0x40a118,%edi
  405fce:	e8 7d d4 ff ff       	call   403450 <dlerror@plt+0xf30>
  405fd3:	b8 ff ff ff ff       	mov    $0xffffffff,%eax
  405fd8:	5d                   	pop    %rbp
  405fd9:	c3                   	ret    
  405fda:	bf c0 a1 40 00       	mov    $0x40a1c0,%edi
  405fdf:	e8 6c d4 ff ff       	call   403450 <dlerror@plt+0xf30>
  405fe4:	b8 ff ff ff ff       	mov    $0xffffffff,%eax
  405fe9:	5d                   	pop    %rbp
  405fea:	c3                   	ret    
  405feb:	bf 98 a1 40 00       	mov    $0x40a198,%edi
  405ff0:	e8 5b d4 ff ff       	call   403450 <dlerror@plt+0xf30>
  405ff5:	b8 ff ff ff ff       	mov    $0xffffffff,%eax
  405ffa:	5d                   	pop    %rbp
  405ffb:	c3                   	ret    
  405ffc:	bf 70 a1 40 00       	mov    $0x40a170,%edi
  406001:	e8 4a d4 ff ff       	call   403450 <dlerror@plt+0xf30>
  406006:	b8 ff ff ff ff       	mov    $0xffffffff,%eax
  40600b:	5d                   	pop    %rbp
  40600c:	c3                   	ret    
  40600d:	bf 50 a1 40 00       	mov    $0x40a150,%edi
  406012:	e8 39 d4 ff ff       	call   403450 <dlerror@plt+0xf30>
  406017:	b8 ff ff ff ff       	mov    $0xffffffff,%eax
  40601c:	5d                   	pop    %rbp
  40601d:	c3                   	ret    
  40601e:	bf 90 a2 40 00       	mov    $0x40a290,%edi
  406023:	e8 28 d4 ff ff       	call   403450 <dlerror@plt+0xf30>
  406028:	b8 ff ff ff ff       	mov    $0xffffffff,%eax
  40602d:	5d                   	pop    %rbp
  40602e:	c3                   	ret    
  40602f:	bf 50 a2 40 00       	mov    $0x40a250,%edi
  406034:	e8 17 d4 ff ff       	call   403450 <dlerror@plt+0xf30>
  406039:	b8 ff ff ff ff       	mov    $0xffffffff,%eax
  40603e:	5d                   	pop    %rbp
  40603f:	c3                   	ret    
  406040:	bf 20 a2 40 00       	mov    $0x40a220,%edi
  406045:	e8 06 d4 ff ff       	call   403450 <dlerror@plt+0xf30>
  40604a:	b8 ff ff ff ff       	mov    $0xffffffff,%eax
  40604f:	5d                   	pop    %rbp
  406050:	c3                   	ret    
  406051:	bf f0 a1 40 00       	mov    $0x40a1f0,%edi
  406056:	e8 f5 d3 ff ff       	call   403450 <dlerror@plt+0xf30>
  40605b:	b8 ff ff ff ff       	mov    $0xffffffff,%eax
  406060:	5d                   	pop    %rbp
  406061:	c3                   	ret    
  406062:	bf f8 a2 40 00       	mov    $0x40a2f8,%edi
  406067:	e8 e4 d3 ff ff       	call   403450 <dlerror@plt+0xf30>
  40606c:	b8 ff ff ff ff       	mov    $0xffffffff,%eax
  406071:	5d                   	pop    %rbp
  406072:	c3                   	ret    
  406073:	bf c8 a2 40 00       	mov    $0x40a2c8,%edi
  406078:	e8 d3 d3 ff ff       	call   403450 <dlerror@plt+0xf30>
  40607d:	b8 ff ff ff ff       	mov    $0xffffffff,%eax
  406082:	5d                   	pop    %rbp
  406083:	c3                   	ret    
  406084:	bf 48 a3 40 00       	mov    $0x40a348,%edi
  406089:	e8 c2 d3 ff ff       	call   403450 <dlerror@plt+0xf30>
  40608e:	b8 ff ff ff ff       	mov    $0xffffffff,%eax
  406093:	5d                   	pop    %rbp
  406094:	c3                   	ret    
  406095:	bf 20 a3 40 00       	mov    $0x40a320,%edi
  40609a:	e8 b1 d3 ff ff       	call   403450 <dlerror@plt+0xf30>
  40609f:	b8 ff ff ff ff       	mov    $0xffffffff,%eax
  4060a4:	5d                   	pop    %rbp
  4060a5:	c3                   	ret    
  4060a6:	bf f0 a3 40 00       	mov    $0x40a3f0,%edi
  4060ab:	e8 a0 d3 ff ff       	call   403450 <dlerror@plt+0xf30>
  4060b0:	b8 ff ff ff ff       	mov    $0xffffffff,%eax
  4060b5:	5d                   	pop    %rbp
  4060b6:	c3                   	ret    
  4060b7:	bf c0 a3 40 00       	mov    $0x40a3c0,%edi
  4060bc:	e8 8f d3 ff ff       	call   403450 <dlerror@plt+0xf30>
  4060c1:	b8 ff ff ff ff       	mov    $0xffffffff,%eax
  4060c6:	5d                   	pop    %rbp
  4060c7:	c3                   	ret    
  4060c8:	bf 98 a3 40 00       	mov    $0x40a398,%edi
  4060cd:	e8 7e d3 ff ff       	call   403450 <dlerror@plt+0xf30>
  4060d2:	b8 ff ff ff ff       	mov    $0xffffffff,%eax
  4060d7:	5d                   	pop    %rbp
  4060d8:	c3                   	ret    
  4060d9:	bf 70 a3 40 00       	mov    $0x40a370,%edi
  4060de:	e8 6d d3 ff ff       	call   403450 <dlerror@plt+0xf30>
  4060e3:	b8 ff ff ff ff       	mov    $0xffffffff,%eax
  4060e8:	5d                   	pop    %rbp
  4060e9:	c3                   	ret    
  4060ea:	bf 40 a4 40 00       	mov    $0x40a440,%edi
  4060ef:	e8 5c d3 ff ff       	call   403450 <dlerror@plt+0xf30>
  4060f4:	b8 ff ff ff ff       	mov    $0xffffffff,%eax
  4060f9:	5d                   	pop    %rbp
  4060fa:	c3                   	ret    
  4060fb:	bf 18 a4 40 00       	mov    $0x40a418,%edi
  406100:	e8 4b d3 ff ff       	call   403450 <dlerror@plt+0xf30>
  406105:	b8 ff ff ff ff       	mov    $0xffffffff,%eax
  40610a:	5d                   	pop    %rbp
  40610b:	c3                   	ret    
  40610c:	bf 68 a4 40 00       	mov    $0x40a468,%edi
  406111:	e8 3a d3 ff ff       	call   403450 <dlerror@plt+0xf30>
  406116:	b8 ff ff ff ff       	mov    $0xffffffff,%eax
  40611b:	5d                   	pop    %rbp
  40611c:	c3                   	ret    
  40611d:	0f 1f 00             	nopl   (%rax)
  406120:	41 54                	push   %r12
  406122:	4c 8d 67 30          	lea    0x30(%rdi),%r12
  406126:	ba a2 95 40 00       	mov    $0x4095a2,%edx
  40612b:	be 40 00 00 00       	mov    $0x40,%esi
  406130:	55                   	push   %rbp
  406131:	4c 89 e1             	mov    %r12,%rcx
  406134:	48 89 fd             	mov    %rdi,%rbp
  406137:	31 c0                	xor    %eax,%eax
  406139:	48 81 ec 48 10 00 00 	sub    $0x1048,%rsp
  406140:	48 89 e7             	mov    %rsp,%rdi
  406143:	e8 a8 c0 ff ff       	call   4021f0 <snprintf@plt>
  406148:	48 98                	cltq   
  40614a:	48 83 f8 3f          	cmp    $0x3f,%rax
  40614e:	77 60                	ja     4061b0 <dlerror@plt+0x3c90>
  406150:	48 81 c5 70 40 00 00 	add    $0x4070,%rbp
  406157:	48 89 e2             	mov    %rsp,%rdx
  40615a:	48 8d 7c 24 40       	lea    0x40(%rsp),%rdi
  40615f:	48 89 ee             	mov    %rbp,%rsi
  406162:	e8 69 e2 ff ff       	call   4043d0 <dlerror@plt+0x1eb0>
  406167:	48 85 c0             	test   %rax,%rax
  40616a:	74 2c                	je     406198 <dlerror@plt+0x3c78>
  40616c:	48 8d 7c 24 40       	lea    0x40(%rsp),%rdi
  406171:	e8 9a 1e 00 00       	call   408010 <dlerror@plt+0x5af0>
  406176:	48 89 c7             	mov    %rax,%rdi
  406179:	48 85 c0             	test   %rax,%rax
  40617c:	74 50                	je     4061ce <dlerror@plt+0x3cae>
  40617e:	8b 35 30 81 00 00    	mov    0x8130(%rip),%esi        # 40e2b4 <stderr@GLIBC_2.2.5+0xc>
  406184:	e8 a7 f7 ff ff       	call   405930 <dlerror@plt+0x3410>
  406189:	48 81 c4 48 10 00 00 	add    $0x1048,%rsp
  406190:	5d                   	pop    %rbp
  406191:	41 5c                	pop    %r12
  406193:	c3                   	ret    
  406194:	0f 1f 40 00          	nopl   0x0(%rax)
  406198:	ba 00 10 00 00       	mov    $0x1000,%edx
  40619d:	48 89 ee             	mov    %rbp,%rsi
  4061a0:	bf 20 a5 40 00       	mov    $0x40a520,%edi
  4061a5:	e8 a6 d2 ff ff       	call   403450 <dlerror@plt+0xf30>
  4061aa:	eb c0                	jmp    40616c <dlerror@plt+0x3c4c>
  4061ac:	0f 1f 40 00          	nopl   0x0(%rax)
  4061b0:	48 89 c6             	mov    %rax,%rsi
  4061b3:	b9 40 00 00 00       	mov    $0x40,%ecx
  4061b8:	31 c0                	xor    %eax,%eax
  4061ba:	4c 89 e2             	mov    %r12,%rdx
  4061bd:	bf d8 a4 40 00       	mov    $0x40a4d8,%edi
  4061c2:	e8 89 d2 ff ff       	call   403450 <dlerror@plt+0xf30>
  4061c7:	b8 ff ff ff ff       	mov    $0xffffffff,%eax
  4061cc:	eb bb                	jmp    406189 <dlerror@plt+0x3c69>
  4061ce:	e8 4d c3 ff ff       	call   402520 <dlerror@plt>
  4061d3:	48 8d 74 24 40       	lea    0x40(%rsp),%rsi
  4061d8:	bf 58 a5 40 00       	mov    $0x40a558,%edi
  4061dd:	48 89 c2             	mov    %rax,%rdx
  4061e0:	31 c0                	xor    %eax,%eax
  4061e2:	e8 69 d2 ff ff       	call   403450 <dlerror@plt+0xf30>
  4061e7:	b8 ff ff ff ff       	mov    $0xffffffff,%eax
  4061ec:	eb 9b                	jmp    406189 <dlerror@plt+0x3c69>
  4061ee:	66 90                	xchg   %ax,%ax
  4061f0:	41 55                	push   %r13
  4061f2:	49 89 fd             	mov    %rdi,%r13
  4061f5:	41 54                	push   %r12
  4061f7:	55                   	push   %rbp
  4061f8:	48 83 ec 20          	sub    $0x20,%rsp
  4061fc:	e8 9f e7 ff ff       	call   4049a0 <dlerror@plt+0x2480>
  406201:	49 89 c4             	mov    %rax,%r12
  406204:	48 85 c0             	test   %rax,%rax
  406207:	0f 84 9d 01 00 00    	je     4063aa <dlerror@plt+0x3e8a>
  40620d:	48 89 c7             	mov    %rax,%rdi
  406210:	e8 cb f6 ff ff       	call   4058e0 <dlerror@plt+0x33c0>
  406215:	85 c0                	test   %eax,%eax
  406217:	0f 88 1b 01 00 00    	js     406338 <dlerror@plt+0x3e18>
  40621d:	31 c0                	xor    %eax,%eax
  40621f:	e8 dc ea ff ff       	call   404d00 <dlerror@plt+0x27e0>
  406224:	48 89 c5             	mov    %rax,%rbp
  406227:	48 85 c0             	test   %rax,%rax
  40622a:	0f 84 aa 01 00 00    	je     4063da <dlerror@plt+0x3eba>
  406230:	48 89 c7             	mov    %rax,%rdi
  406233:	ff 15 97 81 00 00    	call   *0x8197(%rip)        # 40e3d0 <stderr@GLIBC_2.2.5+0x128>
  406239:	4c 89 ee             	mov    %r13,%rsi
  40623c:	48 89 ef             	mov    %rbp,%rdi
  40623f:	e8 4c eb ff ff       	call   404d90 <dlerror@plt+0x2870>
  406244:	85 c0                	test   %eax,%eax
  406246:	0f 88 02 01 00 00    	js     40634e <dlerror@plt+0x3e2e>
  40624c:	4c 89 ee             	mov    %r13,%rsi
  40624f:	48 89 ef             	mov    %rbp,%rdi
  406252:	e8 b9 ec ff ff       	call   404f10 <dlerror@plt+0x29f0>
  406257:	85 c0                	test   %eax,%eax
  406259:	0f 88 06 01 00 00    	js     406365 <dlerror@plt+0x3e45>
  40625f:	4c 89 ee             	mov    %r13,%rsi
  406262:	48 89 ef             	mov    %rbp,%rdi
  406265:	e8 16 ee ff ff       	call   405080 <dlerror@plt+0x2b60>
  40626a:	85 c0                	test   %eax,%eax
  40626c:	0f 88 0a 01 00 00    	js     40637c <dlerror@plt+0x3e5c>
  406272:	4c 89 ee             	mov    %r13,%rsi
  406275:	48 89 ef             	mov    %rbp,%rdi
  406278:	e8 03 f0 ff ff       	call   405280 <dlerror@plt+0x2d60>
  40627d:	85 c0                	test   %eax,%eax
  40627f:	0f 88 0e 01 00 00    	js     406393 <dlerror@plt+0x3e73>
  406285:	4c 89 e6             	mov    %r12,%rsi
  406288:	48 89 ef             	mov    %rbp,%rdi
  40628b:	e8 50 f1 ff ff       	call   4053e0 <dlerror@plt+0x2ec0>
  406290:	85 c0                	test   %eax,%eax
  406292:	0f 88 2b 01 00 00    	js     4063c3 <dlerror@plt+0x3ea3>
  406298:	41 8b 44 24 04       	mov    0x4(%r12),%eax
  40629d:	85 c0                	test   %eax,%eax
  40629f:	75 4f                	jne    4062f0 <dlerror@plt+0x3dd0>
  4062a1:	48 89 e7             	mov    %rsp,%rdi
  4062a4:	48 89 ee             	mov    %rbp,%rsi
  4062a7:	ff 15 43 81 00 00    	call   *0x8143(%rip)        # 40e3f0 <stderr@GLIBC_2.2.5+0x148>
  4062ad:	ff 74 24 18          	push   0x18(%rsp)
  4062b1:	ff 74 24 18          	push   0x18(%rsp)
  4062b5:	ff 74 24 18          	push   0x18(%rsp)
  4062b9:	ff 74 24 18          	push   0x18(%rsp)
  4062bd:	ff 15 3d 80 00 00    	call   *0x803d(%rip)        # 40e300 <stderr@GLIBC_2.2.5+0x58>
  4062c3:	41 89 c5             	mov    %eax,%r13d
  4062c6:	48 83 c4 20          	add    $0x20,%rsp
  4062ca:	85 c0                	test   %eax,%eax
  4062cc:	75 3c                	jne    40630a <dlerror@plt+0x3dea>
  4062ce:	48 89 ef             	mov    %rbp,%rdi
  4062d1:	e8 9a ea ff ff       	call   404d70 <dlerror@plt+0x2850>
  4062d6:	4c 89 e7             	mov    %r12,%rdi
  4062d9:	e8 32 e6 ff ff       	call   404910 <dlerror@plt+0x23f0>
  4062de:	48 83 c4 20          	add    $0x20,%rsp
  4062e2:	44 89 e8             	mov    %r13d,%eax
  4062e5:	5d                   	pop    %rbp
  4062e6:	41 5c                	pop    %r12
  4062e8:	41 5d                	pop    %r13
  4062ea:	c3                   	ret    
  4062eb:	0f 1f 44 00 00       	nopl   0x0(%rax,%rax,1)
  4062f0:	48 8b 3d a9 7f 00 00 	mov    0x7fa9(%rip),%rdi        # 40e2a0 <stdout@GLIBC_2.2.5>
  4062f7:	e8 94 c0 ff ff       	call   402390 <fflush@plt>
  4062fc:	48 8b 3d a5 7f 00 00 	mov    0x7fa5(%rip),%rdi        # 40e2a8 <stderr@GLIBC_2.2.5>
  406303:	e8 88 c0 ff ff       	call   402390 <fflush@plt>
  406308:	eb 97                	jmp    4062a1 <dlerror@plt+0x3d81>
  40630a:	bf a8 a6 40 00       	mov    $0x40a6a8,%edi
  40630f:	31 c0                	xor    %eax,%eax
  406311:	41 bd ff ff ff ff    	mov    $0xffffffff,%r13d
  406317:	e8 34 d1 ff ff       	call   403450 <dlerror@plt+0xf30>
  40631c:	ff 74 24 18          	push   0x18(%rsp)
  406320:	ff 74 24 18          	push   0x18(%rsp)
  406324:	ff 74 24 18          	push   0x18(%rsp)
  406328:	ff 74 24 18          	push   0x18(%rsp)
  40632c:	ff 15 ce 80 00 00    	call   *0x80ce(%rip)        # 40e400 <stderr@GLIBC_2.2.5+0x158>
  406332:	48 83 c4 20          	add    $0x20,%rsp
  406336:	eb 96                	jmp    4062ce <dlerror@plt+0x3dae>
  406338:	bf b0 a5 40 00       	mov    $0x40a5b0,%edi
  40633d:	31 c0                	xor    %eax,%eax
  40633f:	41 bd ff ff ff ff    	mov    $0xffffffff,%r13d
  406345:	31 ed                	xor    %ebp,%ebp
  406347:	e8 04 d1 ff ff       	call   403450 <dlerror@plt+0xf30>
  40634c:	eb 80                	jmp    4062ce <dlerror@plt+0x3dae>
  40634e:	bf 8c a4 40 00       	mov    $0x40a48c,%edi
  406353:	31 c0                	xor    %eax,%eax
  406355:	41 bd ff ff ff ff    	mov    $0xffffffff,%r13d
  40635b:	e8 f0 d0 ff ff       	call   403450 <dlerror@plt+0xf30>
  406360:	e9 69 ff ff ff       	jmp    4062ce <dlerror@plt+0x3dae>
  406365:	bf 30 a6 40 00       	mov    $0x40a630,%edi
  40636a:	31 c0                	xor    %eax,%eax
  40636c:	41 bd ff ff ff ff    	mov    $0xffffffff,%r13d
  406372:	e8 d9 d0 ff ff       	call   403450 <dlerror@plt+0xf30>
  406377:	e9 52 ff ff ff       	jmp    4062ce <dlerror@plt+0x3dae>
  40637c:	bf 58 a6 40 00       	mov    $0x40a658,%edi
  406381:	31 c0                	xor    %eax,%eax
  406383:	41 bd ff ff ff ff    	mov    $0xffffffff,%r13d
  406389:	e8 c2 d0 ff ff       	call   403450 <dlerror@plt+0xf30>
  40638e:	e9 3b ff ff ff       	jmp    4062ce <dlerror@plt+0x3dae>
  406393:	bf a9 a4 40 00       	mov    $0x40a4a9,%edi
  406398:	31 c0                	xor    %eax,%eax
  40639a:	41 bd ff ff ff ff    	mov    $0xffffffff,%r13d
  4063a0:	e8 ab d0 ff ff       	call   403450 <dlerror@plt+0xf30>
  4063a5:	e9 24 ff ff ff       	jmp    4062ce <dlerror@plt+0x3dae>
  4063aa:	bf 88 a5 40 00       	mov    $0x40a588,%edi
  4063af:	31 c0                	xor    %eax,%eax
  4063b1:	31 ed                	xor    %ebp,%ebp
  4063b3:	41 bd ff ff ff ff    	mov    $0xffffffff,%r13d
  4063b9:	e8 92 d0 ff ff       	call   403450 <dlerror@plt+0xf30>
  4063be:	e9 0b ff ff ff       	jmp    4062ce <dlerror@plt+0x3dae>
  4063c3:	bf 80 a6 40 00       	mov    $0x40a680,%edi
  4063c8:	31 c0                	xor    %eax,%eax
  4063ca:	41 bd ff ff ff ff    	mov    $0xffffffff,%r13d
  4063d0:	e8 7b d0 ff ff       	call   403450 <dlerror@plt+0xf30>
  4063d5:	e9 f4 fe ff ff       	jmp    4062ce <dlerror@plt+0x3dae>
  4063da:	bf e8 a5 40 00       	mov    $0x40a5e8,%edi
  4063df:	31 c0                	xor    %eax,%eax
  4063e1:	41 bd ff ff ff ff    	mov    $0xffffffff,%r13d
  4063e7:	e8 64 d0 ff ff       	call   403450 <dlerror@plt+0xf30>
  4063ec:	e9 dd fe ff ff       	jmp    4062ce <dlerror@plt+0x3dae>
  4063f1:	66 66 2e 0f 1f 84 00 	data16 cs nopw 0x0(%rax,%rax,1)
  4063f8:	00 00 00 00 
  4063fc:	0f 1f 40 00          	nopl   0x0(%rax)
  406400:	41 55                	push   %r13
  406402:	41 54                	push   %r12
  406404:	55                   	push   %rbp
  406405:	53                   	push   %rbx
  406406:	48 89 fb             	mov    %rdi,%rbx
  406409:	48 81 c7 70 40 00 00 	add    $0x4070,%rdi
  406410:	48 83 ec 08          	sub    $0x8,%rsp
  406414:	ff 15 be 7e 00 00    	call   *0x7ebe(%rip)        # 40e2d8 <stderr@GLIBC_2.2.5+0x30>
  40641a:	48 85 c0             	test   %rax,%rax
  40641d:	0f 84 ea 00 00 00    	je     40650d <dlerror@plt+0x3fed>
  406423:	48 89 c6             	mov    %rax,%rsi
  406426:	bf c2 a4 40 00       	mov    $0x40a4c2,%edi
  40642b:	ff 15 bf 7e 00 00    	call   *0x7ebf(%rip)        # 40e2f0 <stderr@GLIBC_2.2.5+0x48>
  406431:	48 8b 6b 08          	mov    0x8(%rbx),%rbp
  406435:	48 3b 6b 10          	cmp    0x10(%rbx),%rbp
  406439:	72 3c                	jb     406477 <dlerror@plt+0x3f57>
  40643b:	e9 c0 00 00 00       	jmp    406500 <dlerror@plt+0x3fe0>
  406440:	ff 15 4a 7f 00 00    	call   *0x7f4a(%rip)        # 40e390 <stderr@GLIBC_2.2.5+0xe8>
  406446:	48 85 c0             	test   %rax,%rax
  406449:	74 0c                	je     406457 <dlerror@plt+0x3f37>
  40644b:	ff 15 37 7f 00 00    	call   *0x7f37(%rip)        # 40e388 <stderr@GLIBC_2.2.5+0xe0>
  406451:	ff 15 51 7f 00 00    	call   *0x7f51(%rip)        # 40e3a8 <stderr@GLIBC_2.2.5+0x100>
  406457:	4c 89 e7             	mov    %r12,%rdi
  40645a:	e8 11 bc ff ff       	call   402070 <free@plt>
  40645f:	48 89 ee             	mov    %rbp,%rsi
  406462:	48 89 df             	mov    %rbx,%rdi
  406465:	e8 36 c5 ff ff       	call   4029a0 <dlerror@plt+0x480>
  40646a:	48 89 c5             	mov    %rax,%rbp
  40646d:	48 39 43 10          	cmp    %rax,0x10(%rbx)
  406471:	0f 86 89 00 00 00    	jbe    406500 <dlerror@plt+0x3fe0>
  406477:	0f b6 45 11          	movzbl 0x11(%rbp),%eax
  40647b:	83 e0 df             	and    $0xffffffdf,%eax
  40647e:	3c 4d                	cmp    $0x4d,%al
  406480:	75 dd                	jne    40645f <dlerror@plt+0x3f3f>
  406482:	48 89 ee             	mov    %rbp,%rsi
  406485:	48 89 df             	mov    %rbx,%rdi
  406488:	4c 8d 6d 12          	lea    0x12(%rbp),%r13
  40648c:	e8 1f c5 ff ff       	call   4029b0 <dlerror@plt+0x490>
  406491:	8b 75 0c             	mov    0xc(%rbp),%esi
  406494:	49 89 c4             	mov    %rax,%r12
  406497:	48 89 c7             	mov    %rax,%rdi
  40649a:	ff 15 b0 7e 00 00    	call   *0x7eb0(%rip)        # 40e350 <stderr@GLIBC_2.2.5+0xa8>
  4064a0:	48 89 c6             	mov    %rax,%rsi
  4064a3:	48 85 c0             	test   %rax,%rax
  4064a6:	74 0e                	je     4064b6 <dlerror@plt+0x3f96>
  4064a8:	4c 89 ef             	mov    %r13,%rdi
  4064ab:	ff 15 b7 7e 00 00    	call   *0x7eb7(%rip)        # 40e368 <stderr@GLIBC_2.2.5+0xc0>
  4064b1:	48 85 c0             	test   %rax,%rax
  4064b4:	75 8a                	jne    406440 <dlerror@plt+0x3f20>
  4064b6:	31 c0                	xor    %eax,%eax
  4064b8:	4c 89 ee             	mov    %r13,%rsi
  4064bb:	bf 00 a7 40 00       	mov    $0x40a700,%edi
  4064c0:	e8 8b cf ff ff       	call   403450 <dlerror@plt+0xf30>
  4064c5:	ff 15 c5 7e 00 00    	call   *0x7ec5(%rip)        # 40e390 <stderr@GLIBC_2.2.5+0xe8>
  4064cb:	48 85 c0             	test   %rax,%rax
  4064ce:	74 10                	je     4064e0 <dlerror@plt+0x3fc0>
  4064d0:	ff 15 b2 7e 00 00    	call   *0x7eb2(%rip)        # 40e388 <stderr@GLIBC_2.2.5+0xe0>
  4064d6:	ff 15 cc 7e 00 00    	call   *0x7ecc(%rip)        # 40e3a8 <stderr@GLIBC_2.2.5+0x100>
  4064dc:	0f 1f 40 00          	nopl   0x0(%rax)
  4064e0:	4c 89 e7             	mov    %r12,%rdi
  4064e3:	e8 88 bb ff ff       	call   402070 <free@plt>
  4064e8:	b8 ff ff ff ff       	mov    $0xffffffff,%eax
  4064ed:	48 83 c4 08          	add    $0x8,%rsp
  4064f1:	5b                   	pop    %rbx
  4064f2:	5d                   	pop    %rbp
  4064f3:	41 5c                	pop    %r12
  4064f5:	41 5d                	pop    %r13
  4064f7:	c3                   	ret    
  4064f8:	0f 1f 84 00 00 00 00 	nopl   0x0(%rax,%rax,1)
  4064ff:	00 
  406500:	48 83 c4 08          	add    $0x8,%rsp
  406504:	31 c0                	xor    %eax,%eax
  406506:	5b                   	pop    %rbx
  406507:	5d                   	pop    %rbp
  406508:	41 5c                	pop    %r12
  40650a:	41 5d                	pop    %r13
  40650c:	c3                   	ret    
  40650d:	31 c0                	xor    %eax,%eax
  40650f:	bf d8 a6 40 00       	mov    $0x40a6d8,%edi
  406514:	e8 37 cf ff ff       	call   403450 <dlerror@plt+0xf30>
  406519:	b8 ff ff ff ff       	mov    $0xffffffff,%eax
  40651e:	eb cd                	jmp    4064ed <dlerror@plt+0x3fcd>
  406520:	41 54                	push   %r12
  406522:	48 83 c7 70          	add    $0x70,%rdi
  406526:	55                   	push   %rbp
  406527:	48 83 ec 08          	sub    $0x8,%rsp
  40652b:	44 8b 66 04          	mov    0x4(%rsi),%r12d
  40652f:	4c 03 67 90          	add    -0x70(%rdi),%r12
  406533:	ff 15 9f 7d 00 00    	call   *0x7d9f(%rip)        # 40e2d8 <stderr@GLIBC_2.2.5+0x30>
  406539:	4c 89 e2             	mov    %r12,%rdx
  40653c:	bf cb a4 40 00       	mov    $0x40a4cb,%edi
  406541:	48 89 c6             	mov    %rax,%rsi
  406544:	48 89 c5             	mov    %rax,%rbp
  406547:	31 c0                	xor    %eax,%eax
  406549:	ff 15 81 7d 00 00    	call   *0x7d81(%rip)        # 40e2d0 <stderr@GLIBC_2.2.5+0x28>
  40654f:	48 89 ef             	mov    %rbp,%rdi
  406552:	49 89 c4             	mov    %rax,%r12
  406555:	ff 15 b5 7e 00 00    	call   *0x7eb5(%rip)        # 40e410 <stderr@GLIBC_2.2.5+0x168>
  40655b:	bf d3 a4 40 00       	mov    $0x40a4d3,%edi
  406560:	ff 15 92 7d 00 00    	call   *0x7d92(%rip)        # 40e2f8 <stderr@GLIBC_2.2.5+0x50>
  406566:	48 85 c0             	test   %rax,%rax
  406569:	74 3c                	je     4065a7 <dlerror@plt+0x4087>
  40656b:	4c 89 e6             	mov    %r12,%rsi
  40656e:	48 89 c7             	mov    %rax,%rdi
  406571:	ff 15 e1 7d 00 00    	call   *0x7de1(%rip)        # 40e358 <stderr@GLIBC_2.2.5+0xb0>
  406577:	41 89 c4             	mov    %eax,%r12d
  40657a:	85 c0                	test   %eax,%eax
  40657c:	75 12                	jne    406590 <dlerror@plt+0x4070>
  40657e:	48 83 c4 08          	add    $0x8,%rsp
  406582:	44 89 e0             	mov    %r12d,%eax
  406585:	5d                   	pop    %rbp
  406586:	41 5c                	pop    %r12
  406588:	c3                   	ret    
  406589:	0f 1f 80 00 00 00 00 	nopl   0x0(%rax)
  406590:	31 c0                	xor    %eax,%eax
  406592:	bf 50 a7 40 00       	mov    $0x40a750,%edi
  406597:	e8 b4 ce ff ff       	call   403450 <dlerror@plt+0xf30>
  40659c:	48 83 c4 08          	add    $0x8,%rsp
  4065a0:	44 89 e0             	mov    %r12d,%eax
  4065a3:	5d                   	pop    %rbp
  4065a4:	41 5c                	pop    %r12
  4065a6:	c3                   	ret    
  4065a7:	bf 20 a7 40 00       	mov    $0x40a720,%edi
  4065ac:	31 c0                	xor    %eax,%eax
  4065ae:	e8 9d ce ff ff       	call   403450 <dlerror@plt+0xf30>
  4065b3:	4c 89 e7             	mov    %r12,%rdi
  4065b6:	41 bc ff ff ff ff    	mov    $0xffffffff,%r12d
  4065bc:	ff 15 4e 7e 00 00    	call   *0x7e4e(%rip)        # 40e410 <stderr@GLIBC_2.2.5+0x168>
  4065c2:	eb ba                	jmp    40657e <dlerror@plt+0x405e>
  4065c4:	66 66 2e 0f 1f 84 00 	data16 cs nopw 0x0(%rax,%rax,1)
  4065cb:	00 00 00 00 
  4065cf:	90                   	nop
  4065d0:	55                   	push   %rbp
  4065d1:	53                   	push   %rbx
  4065d2:	48 83 ec 08          	sub    $0x8,%rsp
  4065d6:	48 8b 6f 08          	mov    0x8(%rdi),%rbp
  4065da:	48 3b 6f 10          	cmp    0x10(%rdi),%rbp
  4065de:	73 40                	jae    406620 <dlerror@plt+0x4100>
  4065e0:	48 89 fb             	mov    %rdi,%rbx
  4065e3:	eb 17                	jmp    4065fc <dlerror@plt+0x40dc>
  4065e5:	0f 1f 00             	nopl   (%rax)
  4065e8:	48 89 ee             	mov    %rbp,%rsi
  4065eb:	48 89 df             	mov    %rbx,%rdi
  4065ee:	e8 ad c3 ff ff       	call   4029a0 <dlerror@plt+0x480>
  4065f3:	48 89 c5             	mov    %rax,%rbp
  4065f6:	48 39 43 10          	cmp    %rax,0x10(%rbx)
  4065fa:	76 24                	jbe    406620 <dlerror@plt+0x4100>
  4065fc:	80 7d 11 7a          	cmpb   $0x7a,0x11(%rbp)
  406600:	75 e6                	jne    4065e8 <dlerror@plt+0x40c8>
  406602:	48 89 ee             	mov    %rbp,%rsi
  406605:	48 89 df             	mov    %rbx,%rdi
  406608:	e8 13 ff ff ff       	call   406520 <dlerror@plt+0x4000>
  40660d:	85 c0                	test   %eax,%eax
  40660f:	79 d7                	jns    4065e8 <dlerror@plt+0x40c8>
  406611:	48 83 c4 08          	add    $0x8,%rsp
  406615:	b8 ff ff ff ff       	mov    $0xffffffff,%eax
  40661a:	5b                   	pop    %rbx
  40661b:	5d                   	pop    %rbp
  40661c:	c3                   	ret    
  40661d:	0f 1f 00             	nopl   (%rax)
  406620:	48 83 c4 08          	add    $0x8,%rsp
  406624:	31 c0                	xor    %eax,%eax
  406626:	5b                   	pop    %rbx
  406627:	5d                   	pop    %rbp
  406628:	c3                   	ret    
  406629:	0f 1f 80 00 00 00 00 	nopl   0x0(%rax)
  406630:	83 bf 78 50 00 00 01 	cmpl   $0x1,0x5078(%rdi)
  406637:	74 07                	je     406640 <dlerror@plt+0x4120>
  406639:	c3                   	ret    
  40663a:	66 0f 1f 44 00 00    	nopw   0x0(%rax,%rax,1)
  406640:	48 83 ec 08          	sub    $0x8,%rsp
  406644:	ff 15 9e 7d 00 00    	call   *0x7d9e(%rip)        # 40e3e8 <stderr@GLIBC_2.2.5+0x140>
  40664a:	85 c0                	test   %eax,%eax
  40664c:	74 2a                	je     406678 <dlerror@plt+0x4158>
  40664e:	31 f6                	xor    %esi,%esi
  406650:	bf 80 a7 40 00       	mov    $0x40a780,%edi
  406655:	ff 15 ad 7c 00 00    	call   *0x7cad(%rip)        # 40e308 <stderr@GLIBC_2.2.5+0x60>
  40665b:	31 f6                	xor    %esi,%esi
  40665d:	bf 08 a8 40 00       	mov    $0x40a808,%edi
  406662:	ff 15 a0 7c 00 00    	call   *0x7ca0(%rip)        # 40e308 <stderr@GLIBC_2.2.5+0x60>
  406668:	48 83 c4 08          	add    $0x8,%rsp
  40666c:	ff 25 86 7d 00 00    	jmp    *0x7d86(%rip)        # 40e3f8 <stderr@GLIBC_2.2.5+0x150>
  406672:	66 0f 1f 44 00 00    	nopw   0x0(%rax,%rax,1)
  406678:	48 83 c4 08          	add    $0x8,%rsp
  40667c:	c3                   	ret    
  40667d:	0f 1f 00             	nopl   (%rax)
  406680:	55                   	push   %rbp
  406681:	31 ed                	xor    %ebp,%ebp
  406683:	53                   	push   %rbx
  406684:	48 89 fb             	mov    %rdi,%rbx
  406687:	48 83 ec 08          	sub    $0x8,%rsp
  40668b:	48 8b 47 30          	mov    0x30(%rdi),%rax
  40668f:	48 85 c0             	test   %rax,%rax
  406692:	74 0c                	je     4066a0 <dlerror@plt+0x4180>
  406694:	48 8b 77 38          	mov    0x38(%rdi),%rsi
  406698:	48 8b 7f 10          	mov    0x10(%rdi),%rdi
  40669c:	ff d0                	call   *%rax
  40669e:	89 c5                	mov    %eax,%ebp
  4066a0:	8b 43 18             	mov    0x18(%rbx),%eax
  4066a3:	85 c0                	test   %eax,%eax
  4066a5:	75 26                	jne    4066cd <dlerror@plt+0x41ad>
  4066a7:	bf 40 e4 40 00       	mov    $0x40e440,%edi
  4066ac:	ff 15 46 7e 00 00    	call   *0x7e46(%rip)        # 40e4f8 <stderr@GLIBC_2.2.5+0x250>
  4066b2:	48 8b 43 28          	mov    0x28(%rbx),%rax
  4066b6:	48 8b 7b 20          	mov    0x20(%rbx),%rdi
  4066ba:	89 28                	mov    %ebp,(%rax)
  4066bc:	ff 15 1e 7e 00 00    	call   *0x7e1e(%rip)        # 40e4e0 <stderr@GLIBC_2.2.5+0x238>
  4066c2:	bf 40 e4 40 00       	mov    $0x40e440,%edi
  4066c7:	ff 15 23 7e 00 00    	call   *0x7e23(%rip)        # 40e4f0 <stderr@GLIBC_2.2.5+0x248>
  4066cd:	48 83 c4 08          	add    $0x8,%rsp
  4066d1:	b8 01 00 00 00       	mov    $0x1,%eax
  4066d6:	5b                   	pop    %rbx
  4066d7:	5d                   	pop    %rbp
  4066d8:	c3                   	ret    
  4066d9:	0f 1f 80 00 00 00 00 	nopl   0x0(%rax)
  4066e0:	48 83 ec 08          	sub    $0x8,%rsp
  4066e4:	48 8d 4e 12          	lea    0x12(%rsi),%rcx
  4066e8:	48 8b 3f             	mov    (%rdi),%rdi
  4066eb:	31 d2                	xor    %edx,%edx
  4066ed:	41 b8 01 00 00 00    	mov    $0x1,%r8d
  4066f3:	be 89 a8 40 00       	mov    $0x40a889,%esi
  4066f8:	ff 15 ba 7d 00 00    	call   *0x7dba(%rip)        # 40e4b8 <stderr@GLIBC_2.2.5+0x210>
  4066fe:	31 c0                	xor    %eax,%eax
  406700:	48 83 c4 08          	add    $0x8,%rsp
  406704:	c3                   	ret    
  406705:	66 66 2e 0f 1f 84 00 	data16 cs nopw 0x0(%rax,%rax,1)
  40670c:	00 00 00 00 
  406710:	31 c0                	xor    %eax,%eax
  406712:	c3                   	ret    
  406713:	66 66 2e 0f 1f 84 00 	data16 cs nopw 0x0(%rax,%rax,1)
  40671a:	00 00 00 00 
  40671e:	66 90                	xchg   %ax,%ax
  406720:	c7 05 ee 7c 00 00 01 	movl   $0x1,0x7cee(%rip)        # 40e418 <stderr@GLIBC_2.2.5+0x170>
  406727:	00 00 00 
  40672a:	31 c0                	xor    %eax,%eax
  40672c:	c3                   	ret    
  40672d:	0f 1f 00             	nopl   (%rax)
  406730:	41 57                	push   %r15
  406732:	4c 63 fa             	movslq %edx,%r15
  406735:	41 56                	push   %r14
  406737:	41 55                	push   %r13
  406739:	55                   	push   %rbp
  40673a:	48 89 f5             	mov    %rsi,%rbp
  40673d:	53                   	push   %rbx
  40673e:	48 89 cb             	mov    %rcx,%rbx
  406741:	48 83 ec 10          	sub    $0x10,%rsp
  406745:	4a 8b 7c f9 f8       	mov    -0x8(%rcx,%r15,8),%rdi
  40674a:	ff 15 58 7d 00 00    	call   *0x7d58(%rip)        # 40e4a8 <stderr@GLIBC_2.2.5+0x200>
  406750:	48 89 c7             	mov    %rax,%rdi
  406753:	e8 c8 dd ff ff       	call   404520 <dlerror@plt+0x2000>
  406758:	85 c0                	test   %eax,%eax
  40675a:	75 14                	jne    406770 <dlerror@plt+0x4250>
  40675c:	48 83 c4 10          	add    $0x10,%rsp
  406760:	5b                   	pop    %rbx
  406761:	5d                   	pop    %rbp
  406762:	41 5d                	pop    %r13
  406764:	41 5e                	pop    %r14
  406766:	41 5f                	pop    %r15
  406768:	c3                   	ret    
  406769:	0f 1f 80 00 00 00 00 	nopl   0x0(%rax)
  406770:	42 8d 3c fd 00 00 00 	lea    0x0(,%r15,8),%edi
  406777:	00 
  406778:	4d 89 fd             	mov    %r15,%r13
  40677b:	ff 15 e7 7c 00 00    	call   *0x7ce7(%rip)        # 40e468 <stderr@GLIBC_2.2.5+0x1c0>
  406781:	be ff ff ff ff       	mov    $0xffffffff,%esi
  406786:	bf d6 a8 40 00       	mov    $0x40a8d6,%edi
  40678b:	49 89 c6             	mov    %rax,%r14
  40678e:	ff 15 0c 7d 00 00    	call   *0x7d0c(%rip)        # 40e4a0 <stderr@GLIBC_2.2.5+0x1f8>
  406794:	49 89 06             	mov    %rax,(%r14)
  406797:	41 83 ff 01          	cmp    $0x1,%r15d
  40679b:	7e 1c                	jle    4067b9 <dlerror@plt+0x4299>
  40679d:	b8 01 00 00 00       	mov    $0x1,%eax
  4067a2:	66 0f 1f 44 00 00    	nopw   0x0(%rax,%rax,1)
  4067a8:	48 8b 14 c3          	mov    (%rbx,%rax,8),%rdx
  4067ac:	49 89 14 c6          	mov    %rdx,(%r14,%rax,8)
  4067b0:	48 83 c0 01          	add    $0x1,%rax
  4067b4:	4c 39 f8             	cmp    %r15,%rax
  4067b7:	75 ef                	jne    4067a8 <dlerror@plt+0x4288>
  4067b9:	4c 89 f2             	mov    %r14,%rdx
  4067bc:	44 89 ee             	mov    %r13d,%esi
  4067bf:	48 89 ef             	mov    %rbp,%rdi
  4067c2:	31 c9                	xor    %ecx,%ecx
  4067c4:	ff 15 a6 7c 00 00    	call   *0x7ca6(%rip)        # 40e470 <stderr@GLIBC_2.2.5+0x1c8>
  4067ca:	4c 89 f7             	mov    %r14,%rdi
  4067cd:	89 44 24 0c          	mov    %eax,0xc(%rsp)
  4067d1:	ff 15 89 7c 00 00    	call   *0x7c89(%rip)        # 40e460 <stderr@GLIBC_2.2.5+0x1b8>
  4067d7:	8b 44 24 0c          	mov    0xc(%rsp),%eax
  4067db:	48 83 c4 10          	add    $0x10,%rsp
  4067df:	5b                   	pop    %rbx
  4067e0:	5d                   	pop    %rbp
  4067e1:	41 5d                	pop    %r13
  4067e3:	41 5e                	pop    %r14
  4067e5:	41 5f                	pop    %r15
  4067e7:	c3                   	ret    
  4067e8:	0f 1f 84 00 00 00 00 	nopl   0x0(%rax,%rax,1)
  4067ef:	00 
  4067f0:	41 54                	push   %r12
  4067f2:	49 89 fc             	mov    %rdi,%r12
  4067f5:	55                   	push   %rbp
  4067f6:	49 81 c4 10 20 00 00 	add    $0x2010,%r12
  4067fd:	48 89 f5             	mov    %rsi,%rbp
  406800:	48 81 ec 08 10 00 00 	sub    $0x1008,%rsp
  406807:	48 8b 7a 20          	mov    0x20(%rdx),%rdi
  40680b:	ff 15 97 7c 00 00    	call   *0x7c97(%rip)        # 40e4a8 <stderr@GLIBC_2.2.5+0x200>
  406811:	4c 89 e6             	mov    %r12,%rsi
  406814:	48 89 e7             	mov    %rsp,%rdi
  406817:	48 89 c2             	mov    %rax,%rdx
  40681a:	e8 b1 db ff ff       	call   4043d0 <dlerror@plt+0x1eb0>
  40681f:	4c 89 e1             	mov    %r12,%rcx
  406822:	48 89 ef             	mov    %rbp,%rdi
  406825:	31 d2                	xor    %edx,%edx
  406827:	41 b8 01 00 00 00    	mov    $0x1,%r8d
  40682d:	be 95 a8 40 00       	mov    $0x40a895,%esi
  406832:	ff 15 80 7c 00 00    	call   *0x7c80(%rip)        # 40e4b8 <stderr@GLIBC_2.2.5+0x210>
  406838:	48 89 e6             	mov    %rsp,%rsi
  40683b:	48 89 ef             	mov    %rbp,%rdi
  40683e:	ff 15 3c 7c 00 00    	call   *0x7c3c(%rip)        # 40e480 <stderr@GLIBC_2.2.5+0x1d8>
  406844:	48 81 c4 08 10 00 00 	add    $0x1008,%rsp
  40684b:	5d                   	pop    %rbp
  40684c:	41 5c                	pop    %r12
  40684e:	c3                   	ret    
  40684f:	90                   	nop
  406850:	41 55                	push   %r13
  406852:	49 89 f5             	mov    %rsi,%r13
  406855:	41 54                	push   %r12
  406857:	49 89 cc             	mov    %rcx,%r12
  40685a:	55                   	push   %rbp
  40685b:	48 89 fd             	mov    %rdi,%rbp
  40685e:	48 8b 79 20          	mov    0x20(%rcx),%rdi
  406862:	ff 15 40 7c 00 00    	call   *0x7c40(%rip)        # 40e4a8 <stderr@GLIBC_2.2.5+0x200>
  406868:	bf a0 a8 40 00       	mov    $0x40a8a0,%edi
  40686d:	b9 07 00 00 00       	mov    $0x7,%ecx
  406872:	48 89 c6             	mov    %rax,%rsi
  406875:	f3 a6                	repz cmpsb %es:(%rdi),%ds:(%rsi)
  406877:	0f 97 c0             	seta   %al
  40687a:	1c 00                	sbb    $0x0,%al
  40687c:	84 c0                	test   %al,%al
  40687e:	74 10                	je     406890 <dlerror@plt+0x4370>
  406880:	5d                   	pop    %rbp
  406881:	b8 01 00 00 00       	mov    $0x1,%eax
  406886:	41 5c                	pop    %r12
  406888:	41 5d                	pop    %r13
  40688a:	c3                   	ret    
  40688b:	0f 1f 44 00 00       	nopl   0x0(%rax,%rax,1)
  406890:	4c 89 e2             	mov    %r12,%rdx
  406893:	4c 89 ee             	mov    %r13,%rsi
  406896:	48 89 ef             	mov    %rbp,%rdi
  406899:	5d                   	pop    %rbp
  40689a:	41 5c                	pop    %r12
  40689c:	41 5d                	pop    %r13
  40689e:	e9 4d ff ff ff       	jmp    4067f0 <dlerror@plt+0x42d0>
  4068a3:	66 66 2e 0f 1f 84 00 	data16 cs nopw 0x0(%rax,%rax,1)
  4068aa:	00 00 00 00 
  4068ae:	66 90                	xchg   %ax,%ax
  4068b0:	41 57                	push   %r15
  4068b2:	41 56                	push   %r14
  4068b4:	41 55                	push   %r13
  4068b6:	41 54                	push   %r12
  4068b8:	49 89 fc             	mov    %rdi,%r12
  4068bb:	55                   	push   %rbp
  4068bc:	53                   	push   %rbx
  4068bd:	48 89 f3             	mov    %rsi,%rbx
  4068c0:	48 83 ec 18          	sub    $0x18,%rsp
  4068c4:	48 8b 76 08          	mov    0x8(%rsi),%rsi
  4068c8:	48 39 73 10          	cmp    %rsi,0x10(%rbx)
  4068cc:	77 1c                	ja     4068ea <dlerror@plt+0x43ca>
  4068ce:	e9 86 01 00 00       	jmp    406a59 <dlerror@plt+0x4539>
  4068d3:	0f 1f 44 00 00       	nopl   0x0(%rax,%rax,1)
  4068d8:	e8 c3 c0 ff ff       	call   4029a0 <dlerror@plt+0x480>
  4068dd:	48 89 c6             	mov    %rax,%rsi
  4068e0:	48 3b 43 10          	cmp    0x10(%rbx),%rax
  4068e4:	0f 83 6f 01 00 00    	jae    406a59 <dlerror@plt+0x4539>
  4068ea:	80 7e 11 6c          	cmpb   $0x6c,0x11(%rsi)
  4068ee:	48 89 df             	mov    %rbx,%rdi
  4068f1:	75 e5                	jne    4068d8 <dlerror@plt+0x43b8>
  4068f3:	e8 b8 c0 ff ff       	call   4029b0 <dlerror@plt+0x490>
  4068f8:	48 89 c5             	mov    %rax,%rbp
  4068fb:	48 85 c0             	test   %rax,%rax
  4068fe:	0f 84 55 01 00 00    	je     406a59 <dlerror@plt+0x4539>
  406904:	49 8d 7c 24 10       	lea    0x10(%r12),%rdi
  406909:	ba 10 00 00 00       	mov    $0x10,%edx
  40690e:	48 89 c6             	mov    %rax,%rsi
  406911:	e8 9a b7 ff ff       	call   4020b0 <strncpy@plt>
  406916:	48 8d 75 10          	lea    0x10(%rbp),%rsi
  40691a:	ba 10 00 00 00       	mov    $0x10,%edx
  40691f:	49 8d bc 24 10 10 00 	lea    0x1010(%r12),%rdi
  406926:	00 
  406927:	e8 84 b7 ff ff       	call   4020b0 <strncpy@plt>
  40692c:	48 8d 75 30          	lea    0x30(%rbp),%rsi
  406930:	ba 10 00 00 00       	mov    $0x10,%edx
  406935:	49 8d bc 24 10 30 00 	lea    0x3010(%r12),%rdi
  40693c:	00 
  40693d:	e8 6e b7 ff ff       	call   4020b0 <strncpy@plt>
  406942:	48 8d 55 20          	lea    0x20(%rbp),%rdx
  406946:	48 8d b3 70 20 00 00 	lea    0x2070(%rbx),%rsi
  40694d:	49 8d bc 24 10 20 00 	lea    0x2010(%r12),%rdi
  406954:	00 
  406955:	e8 76 da ff ff       	call   4043d0 <dlerror@plt+0x1eb0>
  40695a:	8b 5d 40             	mov    0x40(%rbp),%ebx
  40695d:	bf 01 00 00 00       	mov    $0x1,%edi
  406962:	0f cb                	bswap  %ebx
  406964:	41 89 9c 24 18 40 00 	mov    %ebx,0x4018(%r12)
  40696b:	00 
  40696c:	8d 73 01             	lea    0x1(%rbx),%esi
  40696f:	48 63 f6             	movslq %esi,%rsi
  406972:	e8 f9 b8 ff ff       	call   402270 <calloc@plt>
  406977:	44 8b 75 48          	mov    0x48(%rbp),%r14d
  40697b:	49 89 84 24 10 40 00 	mov    %rax,0x4010(%r12)
  406982:	00 
  406983:	41 0f ce             	bswap  %r14d
  406986:	45 89 b4 24 28 40 00 	mov    %r14d,0x4028(%r12)
  40698d:	00 
  40698e:	4d 63 f6             	movslq %r14d,%r14
  406991:	4c 89 f7             	mov    %r14,%rdi
  406994:	48 89 44 24 08       	mov    %rax,0x8(%rsp)
  406999:	e8 e2 b9 ff ff       	call   402380 <malloc@plt>
  40699e:	44 8b 6d 50          	mov    0x50(%rbp),%r13d
  4069a2:	49 89 84 24 20 40 00 	mov    %rax,0x4020(%r12)
  4069a9:	00 
  4069aa:	41 0f cd             	bswap  %r13d
  4069ad:	45 89 ac 24 38 40 00 	mov    %r13d,0x4038(%r12)
  4069b4:	00 
  4069b5:	4d 63 ed             	movslq %r13d,%r13
  4069b8:	4c 89 ef             	mov    %r13,%rdi
  4069bb:	48 89 04 24          	mov    %rax,(%rsp)
  4069bf:	e8 bc b9 ff ff       	call   402380 <malloc@plt>
  4069c4:	4c 8b 04 24          	mov    (%rsp),%r8
  4069c8:	4c 8b 4c 24 08       	mov    0x8(%rsp),%r9
  4069cd:	49 89 84 24 30 40 00 	mov    %rax,0x4030(%r12)
  4069d4:	00 
  4069d5:	49 89 c7             	mov    %rax,%r15
  4069d8:	4d 85 c0             	test   %r8,%r8
  4069db:	0f 94 c2             	sete   %dl
  4069de:	4d 85 c9             	test   %r9,%r9
  4069e1:	0f 94 c0             	sete   %al
  4069e4:	08 c2                	or     %al,%dl
  4069e6:	75 65                	jne    406a4d <dlerror@plt+0x452d>
  4069e8:	4d 85 ff             	test   %r15,%r15
  4069eb:	74 60                	je     406a4d <dlerror@plt+0x452d>
  4069ed:	8b 75 44             	mov    0x44(%rbp),%esi
  4069f0:	4c 89 cf             	mov    %r9,%rdi
  4069f3:	48 63 d3             	movslq %ebx,%rdx
  4069f6:	4c 89 04 24          	mov    %r8,(%rsp)
  4069fa:	0f ce                	bswap  %esi
  4069fc:	89 f6                	mov    %esi,%esi
  4069fe:	48 01 ee             	add    %rbp,%rsi
  406a01:	e8 ea b8 ff ff       	call   4022f0 <memcpy@plt>
  406a06:	8b 75 4c             	mov    0x4c(%rbp),%esi
  406a09:	4c 8b 04 24          	mov    (%rsp),%r8
  406a0d:	4c 89 f2             	mov    %r14,%rdx
  406a10:	0f ce                	bswap  %esi
  406a12:	89 f6                	mov    %esi,%esi
  406a14:	4c 89 c7             	mov    %r8,%rdi
  406a17:	48 01 ee             	add    %rbp,%rsi
  406a1a:	e8 d1 b8 ff ff       	call   4022f0 <memcpy@plt>
  406a1f:	8b 75 54             	mov    0x54(%rbp),%esi
  406a22:	4c 89 ea             	mov    %r13,%rdx
  406a25:	4c 89 ff             	mov    %r15,%rdi
  406a28:	0f ce                	bswap  %esi
  406a2a:	89 f6                	mov    %esi,%esi
  406a2c:	48 01 ee             	add    %rbp,%rsi
  406a2f:	e8 bc b8 ff ff       	call   4022f0 <memcpy@plt>
  406a34:	48 89 ef             	mov    %rbp,%rdi
  406a37:	e8 34 b6 ff ff       	call   402070 <free@plt>
  406a3c:	48 83 c4 18          	add    $0x18,%rsp
  406a40:	31 c0                	xor    %eax,%eax
  406a42:	5b                   	pop    %rbx
  406a43:	5d                   	pop    %rbp
  406a44:	41 5c                	pop    %r12
  406a46:	41 5d                	pop    %r13
  406a48:	41 5e                	pop    %r14
  406a4a:	41 5f                	pop    %r15
  406a4c:	c3                   	ret    
  406a4d:	bf f0 a8 40 00       	mov    $0x40a8f0,%edi
  406a52:	31 c0                	xor    %eax,%eax
  406a54:	e8 f7 c9 ff ff       	call   403450 <dlerror@plt+0xf30>
  406a59:	48 83 c4 18          	add    $0x18,%rsp
  406a5d:	b8 ff ff ff ff       	mov    $0xffffffff,%eax
  406a62:	5b                   	pop    %rbx
  406a63:	5d                   	pop    %rbp
  406a64:	41 5c                	pop    %r12
  406a66:	41 5d                	pop    %r13
  406a68:	41 5e                	pop    %r14
  406a6a:	41 5f                	pop    %r15
  406a6c:	c3                   	ret    
  406a6d:	0f 1f 00             	nopl   (%rax)
  406a70:	48 8b 77 08          	mov    0x8(%rdi),%rsi
  406a74:	48 3b 77 10          	cmp    0x10(%rdi),%rsi
  406a78:	73 2a                	jae    406aa4 <dlerror@plt+0x4584>
  406a7a:	55                   	push   %rbp
  406a7b:	48 89 fd             	mov    %rdi,%rbp
  406a7e:	eb 0e                	jmp    406a8e <dlerror@plt+0x456e>
  406a80:	e8 1b bf ff ff       	call   4029a0 <dlerror@plt+0x480>
